
software.elf:     file format elf32-littleriscv

SYMBOL TABLE:
40000000 l    d  .text	00000000 .text
40069870 l    d  .rodata	00000000 .rodata
40076b58 l    d  .data	00000000 .data
403de838 l    d  .bss	00000000 .bss
00000000 l    d  .debug_info	00000000 .debug_info
00000000 l    d  .debug_abbrev	00000000 .debug_abbrev
00000000 l    d  .debug_loc	00000000 .debug_loc
00000000 l    d  .debug_aranges	00000000 .debug_aranges
00000000 l    d  .debug_ranges	00000000 .debug_ranges
00000000 l    d  .debug_line	00000000 .debug_line
00000000 l    d  .debug_str	00000000 .debug_str
00000000 l    d  .comment	00000000 .comment
00000000 l    d  .riscv.attributes	00000000 .riscv.attributes
00000000 l    d  .debug_frame	00000000 .debug_frame
00000000 l    d  .debug_macro	00000000 .debug_macro
00000000 l    df *ABS*	00000000 src/crt0-vexriscv.o
400628d8 l       .text	00000000 crt_init
4006294c l       .text	00000000 infinit_loop
00000000 l    df *ABS*	00000000 base.c
00000000 l       *ABS*	00000000 regnum_x0
00000001 l       *ABS*	00000000 regnum_x1
00000002 l       *ABS*	00000000 regnum_x2
00000003 l       *ABS*	00000000 regnum_x3
00000004 l       *ABS*	00000000 regnum_x4
00000005 l       *ABS*	00000000 regnum_x5
00000006 l       *ABS*	00000000 regnum_x6
00000007 l       *ABS*	00000000 regnum_x7
00000008 l       *ABS*	00000000 regnum_x8
00000009 l       *ABS*	00000000 regnum_x9
0000000a l       *ABS*	00000000 regnum_x10
0000000b l       *ABS*	00000000 regnum_x11
0000000c l       *ABS*	00000000 regnum_x12
0000000d l       *ABS*	00000000 regnum_x13
0000000e l       *ABS*	00000000 regnum_x14
0000000f l       *ABS*	00000000 regnum_x15
00000010 l       *ABS*	00000000 regnum_x16
00000011 l       *ABS*	00000000 regnum_x17
00000012 l       *ABS*	00000000 regnum_x18
00000013 l       *ABS*	00000000 regnum_x19
00000014 l       *ABS*	00000000 regnum_x20
00000015 l       *ABS*	00000000 regnum_x21
00000016 l       *ABS*	00000000 regnum_x22
00000017 l       *ABS*	00000000 regnum_x23
00000018 l       *ABS*	00000000 regnum_x24
00000019 l       *ABS*	00000000 regnum_x25
0000001a l       *ABS*	00000000 regnum_x26
0000001b l       *ABS*	00000000 regnum_x27
0000001c l       *ABS*	00000000 regnum_x28
0000001d l       *ABS*	00000000 regnum_x29
0000001e l       *ABS*	00000000 regnum_x30
0000001f l       *ABS*	00000000 regnum_x31
00000000 l       *ABS*	00000000 regnum_zero
00000001 l       *ABS*	00000000 regnum_ra
00000002 l       *ABS*	00000000 regnum_sp
00000003 l       *ABS*	00000000 regnum_gp
00000004 l       *ABS*	00000000 regnum_tp
00000005 l       *ABS*	00000000 regnum_t0
00000006 l       *ABS*	00000000 regnum_t1
00000007 l       *ABS*	00000000 regnum_t2
00000008 l       *ABS*	00000000 regnum_s0
00000009 l       *ABS*	00000000 regnum_s1
0000000a l       *ABS*	00000000 regnum_a0
0000000b l       *ABS*	00000000 regnum_a1
0000000c l       *ABS*	00000000 regnum_a2
0000000d l       *ABS*	00000000 regnum_a3
0000000e l       *ABS*	00000000 regnum_a4
0000000f l       *ABS*	00000000 regnum_a5
00000010 l       *ABS*	00000000 regnum_a6
00000011 l       *ABS*	00000000 regnum_a7
00000012 l       *ABS*	00000000 regnum_s2
00000013 l       *ABS*	00000000 regnum_s3
00000014 l       *ABS*	00000000 regnum_s4
00000015 l       *ABS*	00000000 regnum_s5
00000016 l       *ABS*	00000000 regnum_s6
00000017 l       *ABS*	00000000 regnum_s7
00000018 l       *ABS*	00000000 regnum_s8
00000019 l       *ABS*	00000000 regnum_s9
0000001a l       *ABS*	00000000 regnum_s10
0000001b l       *ABS*	00000000 regnum_s11
0000001c l       *ABS*	00000000 regnum_t3
0000001d l       *ABS*	00000000 regnum_t4
0000001e l       *ABS*	00000000 regnum_t5
0000001f l       *ABS*	00000000 regnum_t6
0000000b l       *ABS*	00000000 CUSTOM0
0000002b l       *ABS*	00000000 CUSTOM1
00000000 l    df *ABS*	00000000 benchmarks.c
400000fc l     F .text	000000b0 do_increment_mem
400001ac l     F .text	000000b0 do_stores
4000025c l     F .text	000000a0 do_loads_strided
400002fc l     F .text	000000b0 do_loads_cached
400003ac l     F .text	000000a0 do_loads
403de530 l     O .data	00000078 MENU
00000000 l    df *ABS*	00000000 main.c
403de5a8 l     O .data	00000088 MENU
00000000 l    df *ABS*	00000000 models.c
403de630 l     O .data	00000038 MENU
00000000 l    df *ABS*	00000000 stdio.c
00000000 l    df *ABS*	00000000 common.c
40069c14 l     O .rodata	00000044 CSWTCH.8
00000000 l    df *ABS*	00000000 functional_cfu_tests.cc
00000000 l       *ABS*	00000000 regnum_x0
00000001 l       *ABS*	00000000 regnum_x1
00000002 l       *ABS*	00000000 regnum_x2
00000003 l       *ABS*	00000000 regnum_x3
00000004 l       *ABS*	00000000 regnum_x4
00000005 l       *ABS*	00000000 regnum_x5
00000006 l       *ABS*	00000000 regnum_x6
00000007 l       *ABS*	00000000 regnum_x7
00000008 l       *ABS*	00000000 regnum_x8
00000009 l       *ABS*	00000000 regnum_x9
0000000a l       *ABS*	00000000 regnum_x10
0000000b l       *ABS*	00000000 regnum_x11
0000000c l       *ABS*	00000000 regnum_x12
0000000d l       *ABS*	00000000 regnum_x13
0000000e l       *ABS*	00000000 regnum_x14
0000000f l       *ABS*	00000000 regnum_x15
00000010 l       *ABS*	00000000 regnum_x16
00000011 l       *ABS*	00000000 regnum_x17
00000012 l       *ABS*	00000000 regnum_x18
00000013 l       *ABS*	00000000 regnum_x19
00000014 l       *ABS*	00000000 regnum_x20
00000015 l       *ABS*	00000000 regnum_x21
00000016 l       *ABS*	00000000 regnum_x22
00000017 l       *ABS*	00000000 regnum_x23
00000018 l       *ABS*	00000000 regnum_x24
00000019 l       *ABS*	00000000 regnum_x25
0000001a l       *ABS*	00000000 regnum_x26
0000001b l       *ABS*	00000000 regnum_x27
0000001c l       *ABS*	00000000 regnum_x28
0000001d l       *ABS*	00000000 regnum_x29
0000001e l       *ABS*	00000000 regnum_x30
0000001f l       *ABS*	00000000 regnum_x31
00000000 l       *ABS*	00000000 regnum_zero
00000001 l       *ABS*	00000000 regnum_ra
00000002 l       *ABS*	00000000 regnum_sp
00000003 l       *ABS*	00000000 regnum_gp
00000004 l       *ABS*	00000000 regnum_tp
00000005 l       *ABS*	00000000 regnum_t0
00000006 l       *ABS*	00000000 regnum_t1
00000007 l       *ABS*	00000000 regnum_t2
00000008 l       *ABS*	00000000 regnum_s0
00000009 l       *ABS*	00000000 regnum_s1
0000000a l       *ABS*	00000000 regnum_a0
0000000b l       *ABS*	00000000 regnum_a1
0000000c l       *ABS*	00000000 regnum_a2
0000000d l       *ABS*	00000000 regnum_a3
0000000e l       *ABS*	00000000 regnum_a4
0000000f l       *ABS*	00000000 regnum_a5
00000010 l       *ABS*	00000000 regnum_a6
00000011 l       *ABS*	00000000 regnum_a7
00000012 l       *ABS*	00000000 regnum_s2
00000013 l       *ABS*	00000000 regnum_s3
00000014 l       *ABS*	00000000 regnum_s4
00000015 l       *ABS*	00000000 regnum_s5
00000016 l       *ABS*	00000000 regnum_s6
00000017 l       *ABS*	00000000 regnum_s7
00000018 l       *ABS*	00000000 regnum_s8
00000019 l       *ABS*	00000000 regnum_s9
0000001a l       *ABS*	00000000 regnum_s10
0000001b l       *ABS*	00000000 regnum_s11
0000001c l       *ABS*	00000000 regnum_t3
0000001d l       *ABS*	00000000 regnum_t4
0000001e l       *ABS*	00000000 regnum_t5
0000001f l       *ABS*	00000000 regnum_t6
0000000b l       *ABS*	00000000 CUSTOM0
0000002b l       *ABS*	00000000 CUSTOM1
4000058c l     F .text	00000158 _ZN12_GLOBAL__N_120do_interactive_testsEv
400006e4 l     F .text	00000098 _ZN12_GLOBAL__N_114do_fixed_testsEv
4000077c l     F .text	000001a0 _ZN12_GLOBAL__N_116do_compare_testsEv
403de668 l     O .data	00000008 _ZN12_GLOBAL__N_14MENUE
00000000 l    df *ABS*	00000000 menu.cc
00000000 l    df *ABS*	00000000 neural_net_svhn.cc
40000a78 l     F .text	0000000c _ZL4testv
40000a84 l     F .text	00000150 _ZL15do_golden_testsv
403de6c0 l     O .data	00000008 _ZL4MENU
00000000 l    df *ABS*	00000000 perf.cc
40000c04 l     F .text	0000004c _ZL12do_perf_showv
40000c50 l     F .text	00000020 _ZL13do_perf_set_1v
40000c70 l     F .text	0000001c _ZL13do_perf_set_0v
40000c8c l     F .text	00000030 _ZL12do_perf_zerov
40000cbc l     F .text	00000014 _ZL13do_perf_pausev
40000cd0 l     F .text	00000014 _ZL14do_perf_enablev
40000ce4 l     F .text	000000c8 _ZL15do_perf_measurev
403de840 l     O .bss	00000004 _ZL11counter_num
403de70c l     O .data	00000008 _ZL4MENU
00000000 l    df *ABS*	00000000 murmurhash.cc
00000000 l    df *ABS*	00000000 util_tests.cc
40000f9c l     F .text	00000148 _ZN12_GLOBAL__N_115do_murmur_testsEv
403de7a4 l     O .data	00000008 _ZN12_GLOBAL__N_14MENUE
00000000 l    df *ABS*	00000000 proj_menu.cc
00000000 l       *ABS*	00000000 regnum_x0
00000001 l       *ABS*	00000000 regnum_x1
00000002 l       *ABS*	00000000 regnum_x2
00000003 l       *ABS*	00000000 regnum_x3
00000004 l       *ABS*	00000000 regnum_x4
00000005 l       *ABS*	00000000 regnum_x5
00000006 l       *ABS*	00000000 regnum_x6
00000007 l       *ABS*	00000000 regnum_x7
00000008 l       *ABS*	00000000 regnum_x8
00000009 l       *ABS*	00000000 regnum_x9
0000000a l       *ABS*	00000000 regnum_x10
0000000b l       *ABS*	00000000 regnum_x11
0000000c l       *ABS*	00000000 regnum_x12
0000000d l       *ABS*	00000000 regnum_x13
0000000e l       *ABS*	00000000 regnum_x14
0000000f l       *ABS*	00000000 regnum_x15
00000010 l       *ABS*	00000000 regnum_x16
00000011 l       *ABS*	00000000 regnum_x17
00000012 l       *ABS*	00000000 regnum_x18
00000013 l       *ABS*	00000000 regnum_x19
00000014 l       *ABS*	00000000 regnum_x20
00000015 l       *ABS*	00000000 regnum_x21
00000016 l       *ABS*	00000000 regnum_x22
00000017 l       *ABS*	00000000 regnum_x23
00000018 l       *ABS*	00000000 regnum_x24
00000019 l       *ABS*	00000000 regnum_x25
0000001a l       *ABS*	00000000 regnum_x26
0000001b l       *ABS*	00000000 regnum_x27
0000001c l       *ABS*	00000000 regnum_x28
0000001d l       *ABS*	00000000 regnum_x29
0000001e l       *ABS*	00000000 regnum_x30
0000001f l       *ABS*	00000000 regnum_x31
00000000 l       *ABS*	00000000 regnum_zero
00000001 l       *ABS*	00000000 regnum_ra
00000002 l       *ABS*	00000000 regnum_sp
00000003 l       *ABS*	00000000 regnum_gp
00000004 l       *ABS*	00000000 regnum_tp
00000005 l       *ABS*	00000000 regnum_t0
00000006 l       *ABS*	00000000 regnum_t1
00000007 l       *ABS*	00000000 regnum_t2
00000008 l       *ABS*	00000000 regnum_s0
00000009 l       *ABS*	00000000 regnum_s1
0000000a l       *ABS*	00000000 regnum_a0
0000000b l       *ABS*	00000000 regnum_a1
0000000c l       *ABS*	00000000 regnum_a2
0000000d l       *ABS*	00000000 regnum_a3
0000000e l       *ABS*	00000000 regnum_a4
0000000f l       *ABS*	00000000 regnum_a5
00000010 l       *ABS*	00000000 regnum_a6
00000011 l       *ABS*	00000000 regnum_a7
00000012 l       *ABS*	00000000 regnum_s2
00000013 l       *ABS*	00000000 regnum_s3
00000014 l       *ABS*	00000000 regnum_s4
00000015 l       *ABS*	00000000 regnum_s5
00000016 l       *ABS*	00000000 regnum_s6
00000017 l       *ABS*	00000000 regnum_s7
00000018 l       *ABS*	00000000 regnum_s8
00000019 l       *ABS*	00000000 regnum_s9
0000001a l       *ABS*	00000000 regnum_s10
0000001b l       *ABS*	00000000 regnum_s11
0000001c l       *ABS*	00000000 regnum_t3
0000001d l       *ABS*	00000000 regnum_t4
0000001e l       *ABS*	00000000 regnum_t5
0000001f l       *ABS*	00000000 regnum_t6
0000000b l       *ABS*	00000000 CUSTOM0
0000002b l       *ABS*	00000000 CUSTOM1
400010f0 l     F .text	0000000c _ZN12_GLOBAL__N_114do_hello_worldEv
400010fc l     F .text	00000140 _ZN12_GLOBAL__N_119do_exercise_cfu_op0Ev
403de7dc l     O .data	00000008 _ZN12_GLOBAL__N_14MENUE
00000000 l    df *ABS*	00000000 proj_tflite.cc
00000000 l    df *ABS*	00000000 software_cfu.cc
00000000 l    df *ABS*	00000000 error_reporter.cc
00000000 l    df *ABS*	00000000 flatbuffer_conversions.cc
00000000 l    df *ABS*	00000000 op_resolver.cc
00000000 l    df *ABS*	00000000 quantization_util.cc
00000000 l    df *ABS*	00000000 kernel_util.cc
00000000 l    df *ABS*	00000000 all_ops_resolver.cc
40004dd8 l     F .text	000001c8 _ZN6tflite22MicroMutableOpResolverILj128EE10AddBuiltinENS_15BuiltinOperatorERK18TfLiteRegistrationPF12TfLiteStatusPKNS_8OperatorEPNS_13ErrorReporterEPNS_20BuiltinDataAllocatorEPPvE.isra.0
00000000 l    df *ABS*	00000000 debug_log.cc
00000000 l    df *ABS*	00000000 fake_micro_context.cc
403de89c l     O .bss	00000100 _ZN6tflite12_GLOBAL__N_1L18dummy_tensor_arenaE
00000000 l    df *ABS*	00000000 flatbuffer_utils.cc
00000000 l    df *ABS*	00000000 activations.cc
40008bb8 l     F .text	0000000c _ZN6tflite12_GLOBAL__N_18ReluInitEP13TfLiteContextPKcj
40008bc4 l     F .text	0000000c _ZN6tflite12_GLOBAL__N_19Relu6InitEP13TfLiteContextPKcj
40008bd0 l     F .text	00000170 _ZN6tflite12_GLOBAL__N_18ReluEvalEP13TfLiteContextP10TfLiteNode
40008d40 l     F .text	00000150 _ZN6tflite12_GLOBAL__N_19Relu6EvalEP13TfLiteContextP10TfLiteNode
00000000 l    df *ABS*	00000000 activations_common.cc
00000000 l    df *ABS*	00000000 add.cc
00000000 l    df *ABS*	00000000 add_common.cc
00000000 l    df *ABS*	00000000 add_n.cc
4000c4b0 l     F .text	000003d0 _ZN6tflite12_GLOBAL__N_17PrepareEP13TfLiteContextP10TfLiteNode
4000c880 l     F .text	000005e4 _ZN6tflite12_GLOBAL__N_14EvalEP13TfLiteContextP10TfLiteNode
00000000 l    df *ABS*	00000000 arg_min_max.cc
00000000 l    df *ABS*	00000000 assign_variable.cc
4000d90c l     F .text	0000008c _ZN6tflite12_GLOBAL__N_14EvalEP13TfLiteContextP10TfLiteNode
4000d998 l     F .text	0000024c _ZN6tflite12_GLOBAL__N_17PrepareEP13TfLiteContextP10TfLiteNode
00000000 l    df *ABS*	00000000 batch_to_space_nd.cc
4000dc30 l     F .text	0000020c _ZN6tflite12_GLOBAL__N_17PrepareEP13TfLiteContextP10TfLiteNode
4000de3c l     F .text	000005f0 _ZN6tflite12_GLOBAL__N_14EvalEP13TfLiteContextP10TfLiteNode
00000000 l    df *ABS*	00000000 call_once.cc
4000e478 l     F .text	0000000c _ZN6tflite12_GLOBAL__N_14InitEP13TfLiteContextPKcj
4000e484 l     F .text	0000010c _ZN6tflite12_GLOBAL__N_17PrepareEP13TfLiteContextP10TfLiteNode
4000e590 l     F .text	00000060 _ZN6tflite12_GLOBAL__N_14EvalEP13TfLiteContextP10TfLiteNode
00000000 l    df *ABS*	00000000 ceil.cc
00000000 l    df *ABS*	00000000 comparisons.cc
4000eb98 l     F .text	00001fa4 _ZN6tflite3ops5micro11comparisons12_GLOBAL__N_111GreaterEvalEP13TfLiteContextP10TfLiteNode
40010b3c l     F .text	00002024 _ZN6tflite3ops5micro11comparisons12_GLOBAL__N_116GreaterEqualEvalEP13TfLiteContextP10TfLiteNode
40012b60 l     F .text	00001fa4 _ZN6tflite3ops5micro11comparisons12_GLOBAL__N_18LessEvalEP13TfLiteContextP10TfLiteNode
40014b04 l     F .text	00002020 _ZN6tflite3ops5micro11comparisons12_GLOBAL__N_113LessEqualEvalEP13TfLiteContextP10TfLiteNode
40016b24 l     F .text	00002880 _ZN6tflite3ops5micro11comparisons12_GLOBAL__N_112NotEqualEvalEP13TfLiteContextP10TfLiteNode
400193a4 l     F .text	00002584 _ZN6tflite3ops5micro11comparisons12_GLOBAL__N_19EqualEvalEP13TfLiteContextP10TfLiteNode
00000000 l    df *ABS*	00000000 concatenation.cc
00000000 l    df *ABS*	00000000 conv.cc
00000000 l       *ABS*	00000000 regnum_x0
00000001 l       *ABS*	00000000 regnum_x1
00000002 l       *ABS*	00000000 regnum_x2
00000003 l       *ABS*	00000000 regnum_x3
00000004 l       *ABS*	00000000 regnum_x4
00000005 l       *ABS*	00000000 regnum_x5
00000006 l       *ABS*	00000000 regnum_x6
00000007 l       *ABS*	00000000 regnum_x7
00000008 l       *ABS*	00000000 regnum_x8
00000009 l       *ABS*	00000000 regnum_x9
0000000a l       *ABS*	00000000 regnum_x10
0000000b l       *ABS*	00000000 regnum_x11
0000000c l       *ABS*	00000000 regnum_x12
0000000d l       *ABS*	00000000 regnum_x13
0000000e l       *ABS*	00000000 regnum_x14
0000000f l       *ABS*	00000000 regnum_x15
00000010 l       *ABS*	00000000 regnum_x16
00000011 l       *ABS*	00000000 regnum_x17
00000012 l       *ABS*	00000000 regnum_x18
00000013 l       *ABS*	00000000 regnum_x19
00000014 l       *ABS*	00000000 regnum_x20
00000015 l       *ABS*	00000000 regnum_x21
00000016 l       *ABS*	00000000 regnum_x22
00000017 l       *ABS*	00000000 regnum_x23
00000018 l       *ABS*	00000000 regnum_x24
00000019 l       *ABS*	00000000 regnum_x25
0000001a l       *ABS*	00000000 regnum_x26
0000001b l       *ABS*	00000000 regnum_x27
0000001c l       *ABS*	00000000 regnum_x28
0000001d l       *ABS*	00000000 regnum_x29
0000001e l       *ABS*	00000000 regnum_x30
0000001f l       *ABS*	00000000 regnum_x31
00000000 l       *ABS*	00000000 regnum_zero
00000001 l       *ABS*	00000000 regnum_ra
00000002 l       *ABS*	00000000 regnum_sp
00000003 l       *ABS*	00000000 regnum_gp
00000004 l       *ABS*	00000000 regnum_tp
00000005 l       *ABS*	00000000 regnum_t0
00000006 l       *ABS*	00000000 regnum_t1
00000007 l       *ABS*	00000000 regnum_t2
00000008 l       *ABS*	00000000 regnum_s0
00000009 l       *ABS*	00000000 regnum_s1
0000000a l       *ABS*	00000000 regnum_a0
0000000b l       *ABS*	00000000 regnum_a1
0000000c l       *ABS*	00000000 regnum_a2
0000000d l       *ABS*	00000000 regnum_a3
0000000e l       *ABS*	00000000 regnum_a4
0000000f l       *ABS*	00000000 regnum_a5
00000010 l       *ABS*	00000000 regnum_a6
00000011 l       *ABS*	00000000 regnum_a7
00000012 l       *ABS*	00000000 regnum_s2
00000013 l       *ABS*	00000000 regnum_s3
00000014 l       *ABS*	00000000 regnum_s4
00000015 l       *ABS*	00000000 regnum_s5
00000016 l       *ABS*	00000000 regnum_s6
00000017 l       *ABS*	00000000 regnum_s7
00000018 l       *ABS*	00000000 regnum_s8
00000019 l       *ABS*	00000000 regnum_s9
0000001a l       *ABS*	00000000 regnum_s10
0000001b l       *ABS*	00000000 regnum_s11
0000001c l       *ABS*	00000000 regnum_t3
0000001d l       *ABS*	00000000 regnum_t4
0000001e l       *ABS*	00000000 regnum_t5
0000001f l       *ABS*	00000000 regnum_t6
0000000b l       *ABS*	00000000 CUSTOM0
0000002b l       *ABS*	00000000 CUSTOM1
4001d170 l     F .text	0000000c _ZN6tflite12_GLOBAL__N_14InitEP13TfLiteContextPKcj
4001d17c l     F .text	00000f1c _ZN6tflite12_GLOBAL__N_14EvalEP13TfLiteContextP10TfLiteNode
00000000 l    df *ABS*	00000000 conv_common.cc
00000000 l       *ABS*	00000000 regnum_x0
00000001 l       *ABS*	00000000 regnum_x1
00000002 l       *ABS*	00000000 regnum_x2
00000003 l       *ABS*	00000000 regnum_x3
00000004 l       *ABS*	00000000 regnum_x4
00000005 l       *ABS*	00000000 regnum_x5
00000006 l       *ABS*	00000000 regnum_x6
00000007 l       *ABS*	00000000 regnum_x7
00000008 l       *ABS*	00000000 regnum_x8
00000009 l       *ABS*	00000000 regnum_x9
0000000a l       *ABS*	00000000 regnum_x10
0000000b l       *ABS*	00000000 regnum_x11
0000000c l       *ABS*	00000000 regnum_x12
0000000d l       *ABS*	00000000 regnum_x13
0000000e l       *ABS*	00000000 regnum_x14
0000000f l       *ABS*	00000000 regnum_x15
00000010 l       *ABS*	00000000 regnum_x16
00000011 l       *ABS*	00000000 regnum_x17
00000012 l       *ABS*	00000000 regnum_x18
00000013 l       *ABS*	00000000 regnum_x19
00000014 l       *ABS*	00000000 regnum_x20
00000015 l       *ABS*	00000000 regnum_x21
00000016 l       *ABS*	00000000 regnum_x22
00000017 l       *ABS*	00000000 regnum_x23
00000018 l       *ABS*	00000000 regnum_x24
00000019 l       *ABS*	00000000 regnum_x25
0000001a l       *ABS*	00000000 regnum_x26
0000001b l       *ABS*	00000000 regnum_x27
0000001c l       *ABS*	00000000 regnum_x28
0000001d l       *ABS*	00000000 regnum_x29
0000001e l       *ABS*	00000000 regnum_x30
0000001f l       *ABS*	00000000 regnum_x31
00000000 l       *ABS*	00000000 regnum_zero
00000001 l       *ABS*	00000000 regnum_ra
00000002 l       *ABS*	00000000 regnum_sp
00000003 l       *ABS*	00000000 regnum_gp
00000004 l       *ABS*	00000000 regnum_tp
00000005 l       *ABS*	00000000 regnum_t0
00000006 l       *ABS*	00000000 regnum_t1
00000007 l       *ABS*	00000000 regnum_t2
00000008 l       *ABS*	00000000 regnum_s0
00000009 l       *ABS*	00000000 regnum_s1
0000000a l       *ABS*	00000000 regnum_a0
0000000b l       *ABS*	00000000 regnum_a1
0000000c l       *ABS*	00000000 regnum_a2
0000000d l       *ABS*	00000000 regnum_a3
0000000e l       *ABS*	00000000 regnum_a4
0000000f l       *ABS*	00000000 regnum_a5
00000010 l       *ABS*	00000000 regnum_a6
00000011 l       *ABS*	00000000 regnum_a7
00000012 l       *ABS*	00000000 regnum_s2
00000013 l       *ABS*	00000000 regnum_s3
00000014 l       *ABS*	00000000 regnum_s4
00000015 l       *ABS*	00000000 regnum_s5
00000016 l       *ABS*	00000000 regnum_s6
00000017 l       *ABS*	00000000 regnum_s7
00000018 l       *ABS*	00000000 regnum_s8
00000019 l       *ABS*	00000000 regnum_s9
0000001a l       *ABS*	00000000 regnum_s10
0000001b l       *ABS*	00000000 regnum_s11
0000001c l       *ABS*	00000000 regnum_t3
0000001d l       *ABS*	00000000 regnum_t4
0000001e l       *ABS*	00000000 regnum_t5
0000001f l       *ABS*	00000000 regnum_t6
0000000b l       *ABS*	00000000 CUSTOM0
0000002b l       *ABS*	00000000 CUSTOM1
00000000 l    df *ABS*	00000000 conv_test.cc
403de4ac l     O .data	00000014 _ZN6tflite7testing12_GLOBAL__N_1L11kInputShapeE
403de4c0 l     O .data	00000014 _ZN6tflite7testing12_GLOBAL__N_1L12kFilterShapeE
403de4d4 l     O .data	00000014 _ZN6tflite7testing12_GLOBAL__N_1L12kOutputShapeE
403de4e8 l     O .data	00000018 _ZN6tflite7testing12_GLOBAL__N_1L18common_conv_paramsE
4006e710 l     O .rodata	00000040 _ZN6tflite7testing12_GLOBAL__N_1L10kInputDataE
4006e750 l     O .rodata	00000030 _ZN6tflite7testing12_GLOBAL__N_1L11kFilterDataE
4006e780 l     O .rodata	00000030 _ZN6tflite7testing12_GLOBAL__N_1L11kGoldenDataE
4006e7b0 l     O .rodata	0000000c _ZN6tflite7testing12_GLOBAL__N_1L9kBiasDataE
403de824 l     O .data	00000008 _ZN6tflite7testing12_GLOBAL__N_1L10kBiasShapeE
00000000 l    df *ABS*	00000000 conv_test_common.cc
40022bd4 l     F .text	00000108 _ZN6tflite7testing10InvokeConvIaEE12TfLiteStatusP12TfLiteTensoriiP16TfLiteConvParams18TfLiteRegistrationPT_.isra.0
40022cdc l     F .text	00000108 _ZN6tflite7testing10InvokeConvIfEE12TfLiteStatusP12TfLiteTensoriiP16TfLiteConvParams18TfLiteRegistrationPT_.isra.0
00000000 l    df *ABS*	00000000 cumsum.cc
40023fb8 l     F .text	00000430 _ZN6tflite12_GLOBAL__N_17PrepareEP13TfLiteContextP10TfLiteNode
400243e8 l     F .text	00000e48 _ZN6tflite12_GLOBAL__N_14EvalEP13TfLiteContextP10TfLiteNode
00000000 l    df *ABS*	00000000 depth_to_space.cc
4002527c l     F .text	000002c8 _ZN6tflite12_GLOBAL__N_17PrepareEP13TfLiteContextP10TfLiteNode
40025544 l     F .text	0000055c _ZN6tflite12_GLOBAL__N_14EvalEP13TfLiteContextP10TfLiteNode
00000000 l    df *ABS*	00000000 depthwise_conv.cc
40025aec l     F .text	0000000c _ZN6tflite12_GLOBAL__N_14InitEP13TfLiteContextPKcj
40025af8 l     F .text	00000a3c _ZN6tflite12_GLOBAL__N_14EvalEP13TfLiteContextP10TfLiteNode
00000000 l    df *ABS*	00000000 depthwise_conv_common.cc
00000000 l    df *ABS*	00000000 depthwise_conv_test.cc
40026d08 l     F .text	00000228 _ZN6tflite7testing12_GLOBAL__N_128ValidateDepthwiseConvGoldensIaEE12TfLiteStatusPKT_iP25TfLiteDepthwiseConvParamsfiP12TfLiteTensor.constprop.0
40026f30 l     F .text	00000580 _ZN6tflite7testing12_GLOBAL__N_128ValidateDepthwiseConvGoldensIaEE12TfLiteStatusPKT_iP25TfLiteDepthwiseConvParamsfiP12TfLiteTensor.constprop.1
400274b0 l     F .text	00000230 _ZN6tflite7testing12_GLOBAL__N_128ValidateDepthwiseConvGoldensIaEE12TfLiteStatusPKT_iP25TfLiteDepthwiseConvParamsfiP12TfLiteTensor.constprop.2
400276e0 l     F .text	00000360 _ZN6tflite7testing12_GLOBAL__N_122TestDepthwiseConvFloatEPiPKfS2_S4_S2_S4_S4_S2_P25TfLiteDepthwiseConvParamsPf
40027a40 l     F .text	000003ec _ZN6tflite7testing12_GLOBAL__N_136TestDepthwiseConvQuantizedPerChannelEPiPKfPafiS2_S4_S5_S2_S4_PlS2_S4_S5_S5_fiP25TfLiteDepthwiseConvParams.constprop.0
00000000 l    df *ABS*	00000000 dequantize.cc
00000000 l    df *ABS*	00000000 dequantize_common.cc
00000000 l    df *ABS*	00000000 detection_postprocess.cc
4002bf04 l     F .text	00000004 _ZN6tflite12_GLOBAL__N_14FreeEP13TfLiteContextPv
4002bf08 l     F .text	00000200 _ZSt13__adjust_heapIPiiiN9__gnu_cxx5__ops15_Iter_comp_iterIZN6tflite12_GLOBAL__N_124DecreasingPartialArgSortEPKfiiS0_EUliiE_EEEvT_T0_SB_T1_T2_
4002c108 l     F .text	0000017c _ZN6tflite12_GLOBAL__N_124DecreasingPartialArgSortEPKfiiPi
4002c284 l     F .text	00000358 _ZN6tflite12_GLOBAL__N_17PrepareEP13TfLiteContextP10TfLiteNode
4002c60c l     F .text	0000039c _ZN6tflite12_GLOBAL__N_19MergeSortIZNS0_17DecreasingArgSortEPKfiPiS4_EUliiE_EEvS4_S4_iT_
4002c9a8 l     F .text	000006c4 _ZN6tflite12_GLOBAL__N_134NonMaxSuppressionSingleClassHelperEP13TfLiteContextP10TfLiteNodePNS0_6OpDataEPKfPiS9_i
4002d06c l     F .text	00001294 _ZN6tflite12_GLOBAL__N_14EvalEP13TfLiteContextP10TfLiteNode
4002eac8 l     F .text	00001f90 _ZN6tflite12_GLOBAL__N_14InitEP13TfLiteContextPKcj
403de500 l     O .data	00000020 _ZZN6tflite30Register_DETECTION_POSTPROCESSEvE1r
00000000 l    df *ABS*	00000000 elementwise.cc
40030a64 l     F .text	000001cc _ZN6tflite3ops5micro11elementwise12_GLOBAL__N_114GenericPrepareIXadL_ZNS3_22IsNumericSupportedTypeE10TfLiteTypeEEEE12TfLiteStatusP13TfLiteContextP10TfLiteNode
40030c30 l     F .text	00000110 _ZN6tflite3ops5micro11elementwise12_GLOBAL__N_17AbsEvalEP13TfLiteContextP10TfLiteNode
40030d40 l     F .text	00000100 _ZN6tflite3ops5micro11elementwise12_GLOBAL__N_114LogicalNotEvalEP13TfLiteContextP10TfLiteNode
40030e40 l     F .text	00000104 _ZN6tflite3ops5micro11elementwise12_GLOBAL__N_110SquareEvalEP13TfLiteContextP10TfLiteNode
40030f44 l     F .text	00000100 _ZN6tflite3ops5micro11elementwise12_GLOBAL__N_18SqrtEvalEP13TfLiteContextP10TfLiteNode
40031044 l     F .text	00000100 _ZN6tflite3ops5micro11elementwise12_GLOBAL__N_17CosEvalEP13TfLiteContextP10TfLiteNode
40031144 l     F .text	00000100 _ZN6tflite3ops5micro11elementwise12_GLOBAL__N_17SinEvalEP13TfLiteContextP10TfLiteNode
40031244 l     F .text	00000100 _ZN6tflite3ops5micro11elementwise12_GLOBAL__N_17LogEvalEP13TfLiteContextP10TfLiteNode
40031344 l     F .text	00000120 _ZN6tflite3ops5micro11elementwise12_GLOBAL__N_19RsqrtEvalEP13TfLiteContextP10TfLiteNode
40031464 l     F .text	000001cc _ZN6tflite3ops5micro11elementwise12_GLOBAL__N_114GenericPrepareIXadL_ZNS3_22IsLogicalSupportedTypeE10TfLiteTypeEEEE12TfLiteStatusP13TfLiteContextP10TfLiteNode
00000000 l    df *ABS*	00000000 elu.cc
40031890 l     F .text	0000000c _ZN6tflite12_GLOBAL__N_17EluInitEP13TfLiteContextPKcj
4003189c l     F .text	00000214 _ZN6tflite12_GLOBAL__N_17EluEvalEP13TfLiteContextP10TfLiteNode
40031ab0 l     F .text	00000294 _ZN6tflite12_GLOBAL__N_110EluPrepareEP13TfLiteContextP10TfLiteNode
00000000 l    df *ABS*	00000000 ethosu.cc
00000000 l    df *ABS*	00000000 exp.cc
40031da4 l     F .text	00000118 _ZN6tflite12_GLOBAL__N_14EvalEP13TfLiteContextP10TfLiteNode
40031ebc l     F .text	000002c8 _ZN6tflite12_GLOBAL__N_17PrepareEP13TfLiteContextP10TfLiteNode
00000000 l    df *ABS*	00000000 expand_dims.cc
400321d0 l     F .text	000001b4 _ZN6tflite12_GLOBAL__N_14EvalEP13TfLiteContextP10TfLiteNode
40032384 l     F .text	000003ec _ZN6tflite12_GLOBAL__N_17PrepareEP13TfLiteContextP10TfLiteNode
00000000 l    df *ABS*	00000000 fill.cc
400327bc l     F .text	000002e0 _ZN6tflite12_GLOBAL__N_14EvalEP13TfLiteContextP10TfLiteNode
40032a9c l     F .text	000002c0 _ZN6tflite12_GLOBAL__N_17PrepareEP13TfLiteContextP10TfLiteNode
00000000 l    df *ABS*	00000000 floor.cc
00000000 l    df *ABS*	00000000 floor_div.cc
40032f20 l     F .text	00000008 _ZN6tflite12_GLOBAL__N_14InitEP13TfLiteContextPKcj
40032f28 l     F .text	000001c0 _ZN6tflite12_GLOBAL__N_17PrepareEP13TfLiteContextP10TfLiteNode
400330e8 l     F .text	0000061c _ZN6tflite12_GLOBAL__N_14EvalEP13TfLiteContextP10TfLiteNode
00000000 l    df *ABS*	00000000 floor_mod.cc
40033750 l     F .text	00000008 _ZN6tflite12_GLOBAL__N_14InitEP13TfLiteContextPKcj
40033758 l     F .text	000001c0 _ZN6tflite12_GLOBAL__N_17PrepareEP13TfLiteContextP10TfLiteNode
40033918 l     F .text	000005f0 _ZN6tflite12_GLOBAL__N_14EvalEP13TfLiteContextP10TfLiteNode
00000000 l    df *ABS*	00000000 fully_connected.cc
40033f54 l     F .text	0000000c _ZN6tflite12_GLOBAL__N_14InitEP13TfLiteContextPKcj
40033f60 l     F .text	000001d8 _ZN6tflite12_GLOBAL__N_17PrepareEP13TfLiteContextP10TfLiteNode
40034138 l     F .text	000005e4 _ZN6tflite12_GLOBAL__N_14EvalEP13TfLiteContextP10TfLiteNode
00000000 l    df *ABS*	00000000 fully_connected_common.cc
00000000 l    df *ABS*	00000000 hard_swish.cc
40034900 l     F .text	0000000c _ZN6tflite12_GLOBAL__N_113HardSwishInitEP13TfLiteContextPKcj
4003490c l     F .text	00000434 _ZN6tflite12_GLOBAL__N_113HardSwishEvalEP13TfLiteContextP10TfLiteNode
00000000 l    df *ABS*	00000000 hard_swish_common.cc
00000000 l    df *ABS*	00000000 kernel_runner.cc
00000000 l    df *ABS*	00000000 kernel_util.cc
00000000 l    df *ABS*	00000000 l2_pool_2d.cc
40035424 l     F .text	00000360 _ZN6tflite12_GLOBAL__N_19L2PrepareEP13TfLiteContextP10TfLiteNode
40035784 l     F .text	000004cc _ZN6tflite12_GLOBAL__N_16L2EvalEP13TfLiteContextP10TfLiteNode
00000000 l    df *ABS*	00000000 l2norm.cc
00000000 l    df *ABS*	00000000 leaky_relu.cc
00000000 l    df *ABS*	00000000 leaky_relu_common.cc
00000000 l    df *ABS*	00000000 log_softmax.cc
00000000 l    df *ABS*	00000000 logical.cc
40037f30 l     F .text	0000000c _ZN6tflite12_GLOBAL__N_113LogicalOrEvalEP13TfLiteContextP10TfLiteNode
40037f3c l     F .text	0000000c _ZN6tflite12_GLOBAL__N_114LogicalAndEvalEP13TfLiteContextP10TfLiteNode
00000000 l    df *ABS*	00000000 logical_common.cc
00000000 l    df *ABS*	00000000 logistic.cc
400384ac l     F .text	0000000c _ZN6tflite12_GLOBAL__N_112LogisticInitEP13TfLiteContextPKcj
4003882c l     F .text	000005c4 _ZN6tflite12_GLOBAL__N_112LogisticEvalEP13TfLiteContextP10TfLiteNode
40070d50 l     O .rodata	00000200 _ZN6tfliteL20sigmoid_table_uint16E
00000000 l    df *ABS*	00000000 logistic_common.cc
00000000 l    df *ABS*	00000000 maximum_minimum.cc
40038fb8 l     F .text	0000003c _ZN6tflite3ops5micro15maximum_minimum12_GLOBAL__N_19MaximumOp2opIfEET_S6_S6_
40038ff4 l     F .text	00000018 _ZN6tflite3ops5micro15maximum_minimum12_GLOBAL__N_19MaximumOp2opIaEET_S6_S6_
4003900c l     F .text	0000000c _ZN6tflite3ops5micro15maximum_minimum12_GLOBAL__N_19MaximumOp2opIlEET_S6_S6_
40039018 l     F .text	0000001c _ZN6tflite3ops5micro15maximum_minimum12_GLOBAL__N_19MaximumOp2opIxEET_S6_S6_
40039034 l     F .text	0000003c _ZN6tflite3ops5micro15maximum_minimum12_GLOBAL__N_19MinimumOp2opIfEET_S6_S6_
40039070 l     F .text	00000018 _ZN6tflite3ops5micro15maximum_minimum12_GLOBAL__N_19MinimumOp2opIaEET_S6_S6_
40039088 l     F .text	0000000c _ZN6tflite3ops5micro15maximum_minimum12_GLOBAL__N_19MinimumOp2opIlEET_S6_S6_
40039094 l     F .text	0000001c _ZN6tflite3ops5micro15maximum_minimum12_GLOBAL__N_19MinimumOp2opIxEET_S6_S6_
4003ada4 l     F .text	0000027c _ZN6tflite3ops5micro15maximum_minimum4EvalILNS2_12_GLOBAL__N_110KernelTypeE0ENS4_9MaximumOpEEE12TfLiteStatusP13TfLiteContextP10TfLiteNode
4003ab28 l     F .text	0000027c _ZN6tflite3ops5micro15maximum_minimum4EvalILNS2_12_GLOBAL__N_110KernelTypeE0ENS4_9MinimumOpEEE12TfLiteStatusP13TfLiteContextP10TfLiteNode
00000000 l    df *ABS*	00000000 mirror_pad.cc
4003b020 l     F .text	0000000c _ZN6tflite12_GLOBAL__N_14InitEP13TfLiteContextPKcj
4003b02c l     F .text	00000194 _ZN6tflite12_GLOBAL__N_17PrepareEP13TfLiteContextP10TfLiteNode
4003b1c0 l     F .text	000000ec _ZN6tflite12_GLOBAL__N_112GetFlatIndexEiiPK16TfLiteEvalTensorPK14TfLiteIntArrayPiS7_i
4003b2ac l     F .text	00000218 _ZN6tflite12_GLOBAL__N_14EvalEP13TfLiteContextP10TfLiteNode
00000000 l    df *ABS*	00000000 mul.cc
00000000 l    df *ABS*	00000000 mul_common.cc
00000000 l    df *ABS*	00000000 neg.cc
00000000 l    df *ABS*	00000000 pack.cc
4003d798 l     F .text	00000618 _ZN6tflite3ops5micro4pack12_GLOBAL__N_14EvalEP13TfLiteContextP10TfLiteNode
00000000 l    df *ABS*	00000000 pad.cc
00000000 l    df *ABS*	00000000 pooling.cc
40040d84 l     F .text	0000000c _ZN6tflite12_GLOBAL__N_14InitEP13TfLiteContextPKcj
40040d90 l     F .text	00000124 _ZN6tflite12_GLOBAL__N_111AverageEvalEP13TfLiteContextP10TfLiteNode
40040eb4 l     F .text	00000124 _ZN6tflite12_GLOBAL__N_17MaxEvalEP13TfLiteContextP10TfLiteNode
00000000 l    df *ABS*	00000000 pooling_common.cc
00000000 l    df *ABS*	00000000 prelu.cc
00000000 l    df *ABS*	00000000 prelu_common.cc
00000000 l    df *ABS*	00000000 quantize.cc
4004334c l     F .text	0000000c _ZN6tflite12_GLOBAL__N_14InitEP13TfLiteContextPKcj
00000000 l    df *ABS*	00000000 quantize_common.cc
00000000 l    df *ABS*	00000000 read_variable.cc
400444c8 l     F .text	0000008c _ZN6tflite12_GLOBAL__N_14EvalEP13TfLiteContextP10TfLiteNode
40044554 l     F .text	00000020 _ZN6tflite12_GLOBAL__N_17PrepareEP13TfLiteContextP10TfLiteNode
00000000 l    df *ABS*	00000000 reduce.cc
00000000 l    df *ABS*	00000000 reshape.cc
00000000 l    df *ABS*	00000000 resize_bilinear.cc
40047914 l     F .text	0000020c _ZN6tflite12_GLOBAL__N_17PrepareEP13TfLiteContextP10TfLiteNode
400481e0 l     F .text	000006d0 _ZN6tflite12_GLOBAL__N_14EvalEP13TfLiteContextP10TfLiteNode
00000000 l    df *ABS*	00000000 resize_nearest_neighbor.cc
00000000 l    df *ABS*	00000000 round.cc
00000000 l    df *ABS*	00000000 shape.cc
40049c6c l     F .text	000000d0 _ZN6tflite12_GLOBAL__N_14EvalEP13TfLiteContextP10TfLiteNode
40049d3c l     F .text	000000b8 _ZN6tflite12_GLOBAL__N_17PrepareEP13TfLiteContextP10TfLiteNode
00000000 l    df *ABS*	00000000 softmax.cc
40049e8c l     F .text	000010d8 _ZN6tflite12_GLOBAL__N_111SoftmaxEvalEP13TfLiteContextP10TfLiteNode
00000000 l    df *ABS*	00000000 softmax_common.cc
00000000 l    df *ABS*	00000000 space_to_batch_nd.cc
4004bb9c l     F .text	0000000c _ZN6tflite12_GLOBAL__N_14InitEP13TfLiteContextPKcj
4004bba8 l     F .text	0000020c _ZN6tflite12_GLOBAL__N_17PrepareEP13TfLiteContextP10TfLiteNode
4004bdb4 l     F .text	00000690 _ZN6tflite12_GLOBAL__N_14EvalEP13TfLiteContextP10TfLiteNode
00000000 l    df *ABS*	00000000 space_to_depth.cc
4004c490 l     F .text	000002b8 _ZN6tflite12_GLOBAL__N_17PrepareEP13TfLiteContextP10TfLiteNode
4004c748 l     F .text	0000054c _ZN6tflite12_GLOBAL__N_14EvalEP13TfLiteContextP10TfLiteNode
00000000 l    df *ABS*	00000000 split.cc
00000000 l    df *ABS*	00000000 split_v.cc
00000000 l    df *ABS*	00000000 squeeze.cc
4004e470 l     F .text	000003c8 _ZN6tflite12_GLOBAL__N_17PrepareEP13TfLiteContextP10TfLiteNode
4004e838 l     F .text	00000108 _ZN6tflite12_GLOBAL__N_14EvalEP13TfLiteContextP10TfLiteNode
00000000 l    df *ABS*	00000000 strided_slice.cc
00000000 l    df *ABS*	00000000 sub.cc
00000000 l    df *ABS*	00000000 sub_common.cc
00000000 l    df *ABS*	00000000 svdf.cc
40055ef4 l     F .text	0000000c _ZN6tflite12_GLOBAL__N_14InitEP13TfLiteContextPKcj
40055f00 l     F .text	000001f0 _ZN6tflite12_GLOBAL__N_14EvalEP13TfLiteContextP10TfLiteNode
00000000 l    df *ABS*	00000000 svdf_common.cc
00000000 l    df *ABS*	00000000 tanh.cc
40058000 l     F .text	0000000c _ZN6tflite3ops5micro11activations12_GLOBAL__N_18TanhInitEP13TfLiteContextPKcj
4005800c l     F .text	00000254 _ZN6tflite3ops5micro11activations12_GLOBAL__N_111TanhPrepareEP13TfLiteContextP10TfLiteNode
400731d0 l     O .rodata	00000200 _ZN6tfliteL20sigmoid_table_uint16E
00000000 l    df *ABS*	00000000 transpose.cc
40058e6c l     F .text	00000280 _ZN6tflite12_GLOBAL__N_17PrepareEP13TfLiteContextP10TfLiteNode
40059bdc l     F .text	00000214 _ZN6tflite12_GLOBAL__N_14EvalEP13TfLiteContextP10TfLiteNode
00000000 l    df *ABS*	00000000 transpose_conv.cc
40059df0 l     F .text	0000000c _ZN6tflite12_GLOBAL__N_14InitEP13TfLiteContextPKcj
40059dfc l     F .text	000007a4 _ZN6tflite12_GLOBAL__N_17PrepareEP13TfLiteContextP10TfLiteNode
4005a5a0 l     F .text	00001b1c _ZN6tflite12_GLOBAL__N_14EvalEP13TfLiteContextP10TfLiteNode
00000000 l    df *ABS*	00000000 unpack.cc
4005c108 l     F .text	000004e4 _ZN6tflite3ops5micro6unpack12_GLOBAL__N_14EvalEP13TfLiteContextP10TfLiteNode
00000000 l    df *ABS*	00000000 var_handle.cc
4005c618 l     F .text	0000000c _ZN6tflite12_GLOBAL__N_14InitEP13TfLiteContextPKcj
4005c624 l     F .text	00000030 _ZN6tflite12_GLOBAL__N_14EvalEP13TfLiteContextP10TfLiteNode
4005c654 l     F .text	000000a8 _ZN6tflite12_GLOBAL__N_17PrepareEP13TfLiteContextP10TfLiteNode
00000000 l    df *ABS*	00000000 memory_helpers.cc
00000000 l    df *ABS*	00000000 greedy_memory_planner.cc
00000000 l    df *ABS*	00000000 linear_memory_planner.cc
00000000 l    df *ABS*	00000000 micro_allocator.cc
4005d3dc l     F .text	00000010 _ZN6tflite12_GLOBAL__N_125MicroBuiltinDataAllocator8AllocateEjj
4005d3ec l     F .text	00000004 _ZN6tflite12_GLOBAL__N_125MicroBuiltinDataAllocator10DeallocateEPv
4005d430 l     F .text	00000004 _ZN6tflite12_GLOBAL__N_125MicroBuiltinDataAllocatorD0Ev
4005d430 l     F .text	00000004 _ZN6tflite12_GLOBAL__N_125MicroBuiltinDataAllocatorD1Ev
400751d8 l     O .rodata	00000018 _ZN6tflite12_GLOBAL__N_1L24kOfflineMemAllocMetadataE
400751f0 l     O .rodata	00000018 _ZTVN6tflite12_GLOBAL__N_125MicroBuiltinDataAllocatorE
40076970 l     O .rodata	00000004 _ZN6tflite12_GLOBAL__N_1L19kZeroLengthIntArrayE
00000000 l    df *ABS*	00000000 micro_context.cc
00000000 l    df *ABS*	00000000 micro_error_reporter.cc
4005f1f0 l     F .text	0000003c _ZN12_GLOBAL__N_13LogEPKcPv
403de844 l     O .bss	00000004 _ZN12_GLOBAL__N_115error_reporter_E
403de848 l     O .bss	00000004 _ZN12_GLOBAL__N_127micro_error_reporter_bufferE
00000000 l    df *ABS*	00000000 micro_graph.cc
00000000 l    df *ABS*	00000000 micro_interpreter.cc
00000000 l    df *ABS*	00000000 micro_profiler.cc
00000000 l    df *ABS*	00000000 micro_resource_variable.cc
00000000 l    df *ABS*	00000000 micro_string.cc
00000000 l    df *ABS*	00000000 micro_time.cc
400615d0 l       .text	00000000 read32
00000000 l    df *ABS*	00000000 micro_utils.cc
00000000 l    df *ABS*	00000000 mock_micro_graph.cc
00000000 l    df *ABS*	00000000 simple_memory_allocator.cc
00000000 l    df *ABS*	00000000 system_setup.cc
00000000 l    df *ABS*	00000000 test_helpers.cc
00000000 l    df *ABS*	00000000 schema_utils.cc
00000000 l    df *ABS*	00000000 tflite.cc
40062370 l     F .text	00000004 _ZN12_GLOBAL__N_116ProgressProfilerD0Ev
40062370 l     F .text	00000004 _ZN12_GLOBAL__N_116ProgressProfilerD1Ev
40062374 l     F .text	00000040 _ZN12_GLOBAL__N_116ProgressProfiler10BeginEventEPKc
404ac16c l     O .bss	00001410 _ZZL11tflite_initvE8resolver
404a9164 l     O .bss	00003008 _ZZL11tflite_initvE14micro_profiler
403e10ac l     O .bss	000c8000 _ZN12_GLOBAL__N_1L12tensor_arenaE
4006276c l       .text	00000000 read1078
40062794 l       .text	00000000 read1113
404a90ac l     O .bss	000000b8 _ZZ17tflite_load_modelPKhjE3buf
400759b8 l     O .rodata	00000018 _ZTVN12_GLOBAL__N_116ProgressProfilerE
403de858 l     O .bss	00000008 _ZGVZL11tflite_initvE14micro_profiler
403de860 l     O .bss	00000008 _ZGVZL11tflite_initvE20micro_error_reporter
403de868 l     O .bss	00000008 _ZGVZL11tflite_initvE8resolver
403de870 l     O .bss	00000004 _ZN12_GLOBAL__N_111interpreterE
403de874 l     O .bss	00000004 _ZN12_GLOBAL__N_111op_resolverE
403de878 l     O .bss	00000004 _ZN12_GLOBAL__N_114error_reporterE
403de87c l     O .bss	00000004 _ZN12_GLOBAL__N_18profilerE
403de880 l     O .bss	00000001 _ZZL11tflite_initvE11initialized
403de82c l     O .data	00000004 _ZZL11tflite_initvE20micro_error_reporter
00000000 l    df *ABS*	00000000 tflite_unit_tests.cc
00000000 l    df *ABS*	00000000 
40062950 l     F .text	000000b4 litex_putc
40062a04 l     F .text	00000064 litex_getc
404ad57c l     O .bss	00000080 rx_buf
404ad5fc l     O .bss	00000080 tx_buf
403de520 l     O .data	00000010 __stdio
403de884 l     O .bss	00000004 rx_consume
403de888 l     O .bss	00000004 rx_produce
403de88c l     O .bss	00000004 tx_consume
403de890 l     O .bss	00000004 tx_produce
00000000 l    df *ABS*	00000000 comparesf2.c
00000000 l    df *ABS*	00000000 comparedf2.c
00000000 l    df *ABS*	00000000 addsf3.c
00000000 l    df *ABS*	00000000 subsf3.c
00000000 l    df *ABS*	00000000 mulsf3.c
00000000 l    df *ABS*	00000000 divsf3.c
00000000 l    df *ABS*	00000000 udivmoddi4.c
00000000 l    df *ABS*	00000000 floatsisf.c
00000000 l    df *ABS*	00000000 floatunsisf.c
00000000 l    df *ABS*	00000000 fixsfsi.c
00000000 l    df *ABS*	00000000 fixdfdi.c
00000000 l    df *ABS*	00000000 fixunsdfdi.c
00000000 l    df *ABS*	00000000 adddf3.c
40063a90 l     F .text	00000080 normalize
00000000 l    df *ABS*	00000000 subdf3.c
00000000 l    df *ABS*	00000000 muldf3.c
40063f74 l     F .text	00000080 normalize
00000000 l    df *ABS*	00000000 divdf3.c
4006437c l     F .text	00000080 normalize
00000000 l    df *ABS*	00000000 floatsidf.c
00000000 l    df *ABS*	00000000 floatunsidf.c
00000000 l    df *ABS*	00000000 floatdidf.c
00000000 l    df *ABS*	00000000 fixdfsi.c
00000000 l    df *ABS*	00000000 fixunsdfsi.c
00000000 l    df *ABS*	00000000 clzsi2.c
00000000 l    df *ABS*	00000000 ctzsi2.c
00000000 l    df *ABS*	00000000 udivdi3.c
00000000 l    df *ABS*	00000000 umoddi3.c
00000000 l    df *ABS*	00000000 lshrdi3.c
00000000 l    df *ABS*	00000000 ashldi3.c
00000000 l    df *ABS*	00000000 strlen.c
00000000 l    df *ABS*	00000000 bsearch.c
00000000 l    df *ABS*	00000000 abort.c
00000000 l    df *ABS*	00000000 abs.c
00000000 l    df *ABS*	00000000 strtol.c
40064d70 l     F .text	0000016c _strtol_l.part.0
00000000 l    df *ABS*	00000000 strtoll.c
40064f04 l     F .text	00000250 _strtoll_l.constprop.0
00000000 l    df *ABS*	00000000 strtoull.c
40065158 l     F .text	00000230 _strtoull_l.constprop.0
00000000 l    df *ABS*	00000000 pico-cxa-atexit.c
00000000 l    df *ABS*	00000000 memcmp.c
00000000 l    df *ABS*	00000000 strncmp.c
00000000 l    df *ABS*	00000000 getchar.c
00000000 l    df *ABS*	00000000 printf.c
00000000 l    df *ABS*	00000000 putchar.c
00000000 l    df *ABS*	00000000 puts.c
00000000 l    df *ABS*	00000000 vfiprintf.c
400654e8 l     F .text	000001c8 __ultoa_invert
00000000 l    df *ABS*	00000000 ef_sqrt.c
00000000 l    df *ABS*	00000000 s_fabs.c
00000000 l    df *ABS*	00000000 sf_fmax.c
00000000 l    df *ABS*	00000000 sf_fmin.c
00000000 l    df *ABS*	00000000 sf_fpclassify.c
00000000 l    df *ABS*	00000000 ef_exp.c
400769d4 l     O .rodata	00000008 ln2HI
400769cc l     O .rodata	00000008 ln2LO
400769dc l     O .rodata	00000008 halF
00000000 l    df *ABS*	00000000 ef_fmod.c
400769e4 l     O .rodata	00000008 Zero
00000000 l    df *ABS*	00000000 ef_log.c
00000000 l    df *ABS*	00000000 sf_ceil.c
00000000 l    df *ABS*	00000000 sf_cos.c
00000000 l    df *ABS*	00000000 sf_floor.c
00000000 l    df *ABS*	00000000 s_floor.c
00000000 l    df *ABS*	00000000 s_frexp.c
00000000 l    df *ABS*	00000000 sf_sin.c
00000000 l    df *ABS*	00000000 sf_tanh.c
00000000 l    df *ABS*	00000000 s_expm1.c
00000000 l    df *ABS*	00000000 s_round.c
00000000 l    df *ABS*	00000000 exp.c
00000000 l    df *ABS*	00000000 math_err_uflow.c
00000000 l    df *ABS*	00000000 math_err_oflow.c
00000000 l    df *ABS*	00000000 sf_expm1.c
00000000 l    df *ABS*	00000000 sf_round.c
00000000 l    df *ABS*	00000000 math_errf_uflowf.c
00000000 l    df *ABS*	00000000 math_errf_oflowf.c
00000000 l    df *ABS*	00000000 signal.c
404ad67c l     O .bss	00000080 _sig_func
00000000 l    df *ABS*	00000000 pico-onexit.c
404ad6fc l     O .bss	00000180 on_exits
00000000 l    df *ABS*	00000000 strnlen.c
00000000 l    df *ABS*	00000000 fgetc.c
00000000 l    df *ABS*	00000000 fputc.c
00000000 l    df *ABS*	00000000 sf_fabs.c
00000000 l    df *ABS*	00000000 ef_rem_pio2.c
4007637c l     O .rodata	00000080 npio2_hw
400763fc l     O .rodata	00000318 two_over_pi
00000000 l    df *ABS*	00000000 kf_cos.c
00000000 l    df *ABS*	00000000 kf_rem_pio2.c
40076714 l     O .rodata	0000000c init_jk
40076720 l     O .rodata	0000002c PIo2
00000000 l    df *ABS*	00000000 kf_sin.c
00000000 l    df *ABS*	00000000 math_err_xflow.c
00000000 l    df *ABS*	00000000 sf_scalbn.c
00000000 l    df *ABS*	00000000 math_errf_xflowf.c
00000000 l    df *ABS*	00000000 lock.c
00000000 l    df *ABS*	00000000 sf_copysign.c
00000000 l    df *ABS*	00000000 floatundidf.c
00000000 l    df *ABS*	00000000 extendsfdf2.c
00000000 l    df *ABS*	00000000 truncdfsf2.c
00000000 l    df *ABS*	00000000 conv_test_data.cc
00000000 l    df *ABS*	00000000 exp_data.c
00000000 l    df *ABS*	00000000 ctype_.c
00000000 l    df *ABS*	00000000 micro_test_globals.cc
00000000 l    df *ABS*	00000000 
0081696c l       .debug_info	00000000 
0081696c l       .debug_info	00000000 
0081696c l       .debug_info	00000000 
0081696c l       .debug_info	00000000 
0081696c l       .debug_info	00000000 
0081696c l       .debug_info	00000000 
0081696c l       .debug_info	00000000 
0081696c l       .debug_info	00000000 
0081696c l       .debug_info	00000000 
0081696c l       .debug_info	00000000 
0081696c l       .debug_info	00000000 
0081696c l       .debug_info	00000000 
0081696c l       .debug_info	00000000 
0081696c l       .debug_info	00000000 
0081696c l       .debug_info	00000000 
0081696c l       .debug_info	00000000 
0081696c l       .debug_info	00000000 
0081696c l       .debug_info	00000000 
0081696c l       .debug_info	00000000 
0081696c l       .debug_info	00000000 
0081696c l       .debug_info	00000000 
0081696c l       .debug_info	00000000 
0081696c l       .debug_info	00000000 
0081696c l       .debug_info	00000000 
0081696c l       .debug_info	00000000 
00000000 l    df *ABS*	00000000 
00816be7 l       .debug_info	00000000 
00816be7 l       .debug_info	00000000 
00816be7 l       .debug_info	00000000 
00816be7 l       .debug_info	00000000 
00816be7 l       .debug_info	00000000 
00816be7 l       .debug_info	00000000 
00816be7 l       .debug_info	00000000 
00816be7 l       .debug_info	00000000 
00816be7 l       .debug_info	00000000 
00816be7 l       .debug_info	00000000 
00816be7 l       .debug_info	00000000 
00816be7 l       .debug_info	00000000 
00816be7 l       .debug_info	00000000 
00816be7 l       .debug_info	00000000 
00816be7 l       .debug_info	00000000 
00816be7 l       .debug_info	00000000 
00816be7 l       .debug_info	00000000 
00816be7 l       .debug_info	00000000 
00816be7 l       .debug_info	00000000 
00816be7 l       .debug_info	00000000 
00816be7 l       .debug_info	00000000 
00816be7 l       .debug_info	00000000 
00816be7 l       .debug_info	00000000 
00000000 l    df *ABS*	00000000 
00816dc9 l       .debug_info	00000000 
00816dc9 l       .debug_info	00000000 
00816dc9 l       .debug_info	00000000 
00816dc9 l       .debug_info	00000000 
00816dc9 l       .debug_info	00000000 
00816dc9 l       .debug_info	00000000 
00816dc9 l       .debug_info	00000000 
00816dc9 l       .debug_info	00000000 
00816dc9 l       .debug_info	00000000 
00816dc9 l       .debug_info	00000000 
00816dc9 l       .debug_info	00000000 
00816dc9 l       .debug_info	00000000 
00816dc9 l       .debug_info	00000000 
00816dc9 l       .debug_info	00000000 
00816dc9 l       .debug_info	00000000 
00816dc9 l       .debug_info	00000000 
00816dc9 l       .debug_info	00000000 
00816dc9 l       .debug_info	00000000 
00816dc9 l       .debug_info	00000000 
00816dc9 l       .debug_info	00000000 
00816dc9 l       .debug_info	00000000 
00000000 l    df *ABS*	00000000 errno.c
4004cfbc  w    F .text	00000294 _ZN6tflite3ops5micro5split9SplitImplIaEE12TfLiteStatusP13TfLiteContextP10TfLiteNodePK16TfLiteEvalTensori
4000899c g     F .text	00000024 _ZN6tflite16FakeMicroContext16GetScratchBufferEi
400027b8 g     F .text	000000cc _ZN6tflite12ParseReducerEPKNS_8OperatorEPNS_13ErrorReporterEPNS_20BuiltinDataAllocatorEPPv
40065460 g     F .text	0000000c putchar
4005f39c g     F .text	000000a0 _ZN6tflite10MicroGraph16GetSubgraphInputEii
4005f2e0 g     F .text	00000004 _ZN6tflite10MicroGraphD0Ev
40041738 g     F .text	000002dc _ZN6tflite27AveragePoolingEvalQuantizedEP13TfLiteContextPK10TfLiteNodePK16TfLitePoolParamsPKNS_13OpDataPoolingEPK16TfLiteEvalTensorPSB_
40064ba4 g     F .text	0000003c __ashldi3
400010e4 g     F .text	0000000c do_util_tests_menu
40001f24 g     F .text	00000008 _ZN6tflite9ParseFillEPKNS_8OperatorEPNS_13ErrorReporterEPNS_20BuiltinDataAllocatorEPPv
40061aa0 g     F .text	00000004 _ZN6tflite21SimpleMemoryAllocatorD1Ev
4005ca88 g     F .text	000000b4 _ZN6tflite19GreedyMemoryPlanner9AddBufferEPNS_13ErrorReporterEiiii
40066f38 g     F .text	0000067c expm1
40001260 g     F .text	00000040 _ZN6tflite13ErrorReporter6ReportEPKcz
40062c8c g     F .text	00000094 __cmpdf2
4005f1ec  w    F .text	00000004 _ZN6tflite18MicroErrorReporterD2Ev
4006635c g     F .text	00000184 fmodf
40065f1c g     F .text	00000018 fabs
40076870 g     O .rodata	00000004 _ZN6tflite27kFullyConnectedOutputTensorE
40041310 g     F .text	00000428 _ZN6tflite23AveragePoolingEvalFloatEPK13TfLiteContextPK10TfLiteNodePK16TfLitePoolParamsPKNS_13OpDataPoolingEPK16TfLiteEvalTensorPSC_
400767a4 g     O .rodata	00000004 _ZN6tflite23kActivationsInputTensorE
400022cc g     F .text	00000008 _ZN6tflite14ParseLessEqualEPKNS_8OperatorEPNS_13ErrorReporterEPNS_20BuiltinDataAllocatorEPPv
40062df0 g     F .text	00000004 __eqdf2
4005d32c g     F .text	000000a0 _ZN6tflite19GreedyMemoryPlanner18GetOffsetForBufferEPNS_13ErrorReporterEiPi
40061aa4 g     F .text	0000000c _ZN6tflite21SimpleMemoryAllocator20ResetTempAllocationsEv
40004c08  w    F .text	00000008 _ZNK6tflite10OpResolver24MayContainUserDefinedOpsEv
4005cb3c g     F .text	00000010 _ZN6tflite19GreedyMemoryPlannerC1Ev
4005ed94 g     F .text	0000019c _ZN6tflite14MicroAllocator21FinishModelAllocationEPKNS_5ModelEPNS_19SubgraphAllocationsEPPNS_19ScratchBufferHandleE
40069294 g     F .text	00000054 .hidden __math_xflow
4001d000 g     F .text	00000170 _ZN6tflite3ops5micro13concatenation4EvalEP13TfLiteContextP10TfLiteNode
4005fd08 g     F .text	00000120 _ZN6tflite16MicroInterpreterC1EPKNS_5ModelERKNS_15MicroOpResolverEPhjPNS_13ErrorReporterEPNS_22MicroResourceVariablesEPNS_13MicroProfilerE
400768a0 g     O .rodata	00000004 _ZN6tflite12kInputTensorE
400648b8 g     F .text	00000058 __floatdidf
400367fc g     F .text	0000004c _ZN6tflite19Register_LEAKY_RELUEv
40009320 g     F .text	000001ac _ZN6tflite11ReluPrepareEP13TfLiteContextP10TfLiteNode
4002c600  w    F .text	0000000c _ZN11flexbuffers10KeyCompareItEEiPKvS2_
40065418 g     F .text	00000048 printf
40076980 g     O .rodata	00000004 stdout
40076b58 g       .data	00000000 _fdata
4000124c g     F .text	00000004 _Z15tflite_postloadv
40076960 g     O .rodata	00000004 _ZN6tflite17kSvdfOutputTensorE
40074d78  w    O .rodata	0000002c _ZTVN6tflite19GreedyMemoryPlannerE
40044574 g     F .text	0000004c _ZN6tflite22Register_READ_VARIABLEEv
400041e4 g     F .text	00000198 _ZN6tflite32GetQuantizedConvolutionMultiplerEP13TfLiteContextPK12TfLiteTensorS4_S4_PS2_Pd
40001860 g     F .text	000000f8 _ZN6tflite18ParseConcatenationEPKNS_8OperatorEPNS_13ErrorReporterEPNS_20BuiltinDataAllocatorEPPv
40001f44 g     F .text	000001c4 _ZN6tflite19ParseFullyConnectedEPKNS_8OperatorEPNS_13ErrorReporterEPNS_20BuiltinDataAllocatorEPPv
400089c0  w    F .text	00000010 _ZN6tflite16FakeMicroContextD0Ev
40000500 g     F .text	00000060 TfLiteIntArrayEqual
4000e42c g     F .text	0000004c _ZN6tflite26Register_BATCH_TO_SPACE_NDEv
400445c0 g     F .text	0000000c _ZN6tflite3ops5micro6reduce10InitReduceEP13TfLiteContextPKcj
4005fee0 g     F .text	000000b4 _ZN6tflite16MicroInterpreter6outputEj
40035014 g     F .text	00000130 _ZN6tflite5micro12KernelRunnerC2ERK18TfLiteRegistrationP12TfLiteTensoriP14TfLiteIntArrayS8_Pv
400675b4 g     F .text	00000100 round
40076958 g     O .rodata	00000004 _ZN6tflite15kSvdfBiasTensorE
400012a0 g     F .text	00000040 _ZN6tflite13ErrorReporter11ReportErrorEPvPKcz
4005984c  w    F .text	00000390 _ZN6tflite13reference_ops13TransposeImplIlLi5EEEvRKNS_15TransposeParamsERKNS_12RuntimeShapeEPKT_S7_PS8_
40026744 g     F .text	00000334 _ZN6tflite28CalculateOpDataDepthwiseConvEP13TfLiteContextP10TfLiteNodeRK25TfLiteDepthwiseConvParamsiiiiii10TfLiteTypePNS_10OpDataConvE
4005ffdc g     F .text	0000049c _ZN6tflite16MicroInterpreter44PrepareNodeAndRegistrationDataFromFlatbufferEv
40058260 g     F .text	0000004c _ZN6tflite3ops5micro13Register_TANHEv
400767d0 g     O .rodata	00000004 _ZN6tflite16kAddOutputTensorE
40063274 g     F .text	00000238 __divsf3
40059138  w    F .text	00000180 _ZN6tflite15NDOpsHelperImplILi5ELi1EZNS_13reference_ops13TransposeImplIaLi5EEEvRKNS_15TransposeParamsERKNS_12RuntimeShapeEPKT_S8_PS9_EUlPiE_EENSt9enable_ifIXneT0_miT_Li1EEvE4typeERKNS_11NdArrayDescIXT_EEERKT1_SD_
4000ea0c g     F .text	0000004c _ZN6tflite3ops5micro13Register_CEILEv
40075a08 g     O .rodata	00000870 .hidden __exp_data
40049df4 g     F .text	0000004c _ZN6tflite14Register_SHAPEEv
400379a0  w    F .text	000001f4 _ZN8gemmlowp55exp_on_interval_between_negative_one_quarter_and_0_exclIlEENS_10FixedPointIT_Li0EEES3_
40040d38 g     F .text	0000004c _ZN6tflite3ops5micro14Register_PADV2Ev
40058938 g     F .text	00000534 _ZN6tflite3ops5micro11activations8TanhEvalEP13TfLiteContextP10TfLiteNode
40040cec g     F .text	0000004c _ZN6tflite3ops5micro12Register_PADEv
40002b74 g     F .text	00000100 _ZN6tflite26ParseResizeNearestNeighborEPKNS_8OperatorEPNS_13ErrorReporterEPNS_20BuiltinDataAllocatorEPPv
4005fc98 g     F .text	0000005c _ZN6tflite10MicroGraphC1EP13TfLiteContextPKNS_5ModelEPNS_14MicroAllocatorEPNS_22MicroResourceVariablesE
4005fe28 g     F .text	000000b8 _ZN6tflite16MicroInterpreter5inputEj
403de850 g     O .bss	00000004 _ZN10micro_test12tests_passedE
40001438 g     F .text	00000110 _ZN6tflite8ParseAddEPKNS_8OperatorEPNS_13ErrorReporterEPNS_20BuiltinDataAllocatorEPPv
40064c04 g     F .text	0000003c memmove
40047b6c  w    F .text	00000674 _ZN6tflite13reference_ops14ResizeBilinearIfEEvRKNS_20ResizeBilinearParamsERKNS_12RuntimeShapeEPKT_S7_PKlS7_PS8_
403de708 g     O .data	00000004 model_neural_net_svhn_tflite_len
40055170  w    F .text	000003bc _ZN6tflite15NDOpsHelperImplILi5ELi1EZNS_13reference_ops16BroadcastSubSlowILi5EEEvRKNS_16ArithmeticParamsERKNS_12RuntimeShapeEPKfS8_SA_S8_PfEUlPiE_EENSt9enable_ifIXneT0_miT_Li1EEvE4typeERKNS_11NdArrayDescIXT_EEERKT1_SC_
40060e50 g     F .text	00000778 MicroVsnprintf
400767e0 g     O .rodata	00000004 _ZN6tflite17kConvOutputTensorE
4002c5dc  w    F .text	0000000c _ZN11flexbuffers10KeyCompareImEEiPKvS2_
40002e78 g     F .text	000000c8 _ZN6tflite17ParseSpaceToDepthEPKNS_8OperatorEPNS_13ErrorReporterEPNS_20BuiltinDataAllocatorEPPv
40060d90 g     F .text	000000c0 _ZN6tflite22MicroResourceVariables6AssignEiPK16TfLiteEvalTensor
400638f4 g     F .text	0000007c __fixsfsi
400370d4 g     F .text	000001f4 _ZN6tflite16LeakyReluPrepareEP13TfLiteContextP10TfLiteNode
4005f22c g     F .text	00000040 _ZN6tflite18MicroErrorReporter6ReportEPKcPv
4000d8e0 g     F .text	0000002c _ZN6tflite3ops5micro16Register_ARG_MINEv
40052190 g     F .text	0000056c _ZN6tflite3ops5micro13strided_slice7PrepareEP13TfLiteContextP10TfLiteNode
4000044c g     F .text	0000000c do_benchmarks_menu
40041024 g     F .text	0000004c _ZN6tflite20Register_MAX_POOL_2DEv
40062dfc g     F .text	00000004 __gtdf2
4002bab4 g     F .text	0000000c _ZN6tflite14DequantizeInitEP13TfLiteContextPKcj
4003dddc g     F .text	0000000c _ZN6tflite3ops5micro3pad4InitEP13TfLiteContextPKcj
40001f04 g     F .text	00000008 _ZN6tflite8ParseEluEPKNS_8OperatorEPNS_13ErrorReporterEPNS_20BuiltinDataAllocatorEPPv
400347ac g     F .text	00000080 _ZN6tflite25FullyConnectedParamsFloatE21TfLiteFusedActivation
00816dc9  w      .debug_info	00000000 .hidden missing.c.b6833076
40001958 g     F .text	000001d4 _ZN6tflite11ParseConv2DEPKNS_8OperatorEPNS_13ErrorReporterEPNS_20BuiltinDataAllocatorEPPv
40068288 g     F .text	0000045c __ieee754_rem_pio2f
40062704 g     F .text	00000028 _Z17tflite_get_outputv
4006c23c  w    O .rodata	00000024 _ZTVN6tflite16FakeMicroContextE
4004e998 g     F .text	00002ff0 _ZN6tflite3ops5micro13strided_slice4EvalEP13TfLiteContextP10TfLiteNode
40066e18 g     F .text	00000120 tanhf
4005d3f0 g     F .text	00000004 _ZN6tflite14MicroAllocatorD0Ev
400664e0 g     F .text	000003b4 logf
400623b4 g     F .text	000002a4 _Z17tflite_load_modelPKhj
400615f0 g     F .text	00000034 _ZN6tflite12ElementCountERK14TfLiteIntArray
40001c34 g     F .text	000000c8 _ZN6tflite17ParseDepthToSpaceEPKNS_8OperatorEPNS_13ErrorReporterEPNS_20BuiltinDataAllocatorEPPv
4000ce64 g     F .text	0000004c _ZN6tflite14Register_ADD_NEv
403de894 g     O .bss	00000004 errno
40066b08 g     F .text	000001b0 floor
400095fc g     F .text	0000000c _ZN6tflite7AddInitEP13TfLiteContextPKcj
40060984 g     F .text	00000094 _ZN6tflite13MicroProfiler10BeginEventEPKc
4006986c g       .text	00000000 _etext
40061d28 g     F .text	00000030 _ZN6tflite7testing20FloatArrayFromFloatsEPKf
4003530c g     F .text	00000118 _ZN6tflite5micro32CreateWritableTensorDimsWithCopyEP13TfLiteContextP12TfLiteTensorP16TfLiteEvalTensor
40001cfc g     F .text	00000200 _ZN6tflite20ParseDepthwiseConv2DEPKNS_8OperatorEPNS_13ErrorReporterEPNS_20BuiltinDataAllocatorEPPv
4003932c  w    F .text	00000464 _ZN6tflite13reference_ops27MaximumMinimumBroadcastSlowIfPFfffELi5EEEvRKNS_12RuntimeShapeEPKT_S6_S9_S6_PS7_T0_
400025d0 g     F .text	00000008 _ZN6tflite10ParsePadV2EPKNS_8OperatorEPNS_13ErrorReporterEPNS_20BuiltinDataAllocatorEPPv
4005f154 g     F .text	00000014 _ZN6tflite12MicroContext27RequestScratchBufferInArenaEjPi
400768d8 g     O .rodata	00000004 _ZN6tflite16kMulInput1TensorE
400037b8 g     F .text	000000f8 _ZN6tflite11ParseUnpackEPKNS_8OperatorEPNS_13ErrorReporterEPNS_20BuiltinDataAllocatorEPPv
40061b1c g     F .text	00000074 _ZN6tflite21SimpleMemoryAllocator16AllocateFromTailEjj
40064c98 g     F .text	000000b0 bsearch
403de530 g       .data	00000000 _gp
4003b510 g     F .text	00000118 _ZN6tflite7MulEvalEP13TfLiteContextP10TfLiteNode
40061d20 g     F .text	00000004 _ZN6tflite16InitializeTargetEv
40049e40 g     F .text	0000004c _ZN6tflite16Register_SOFTMAXEv
40003008 g     F .text	000000c8 _ZN6tflite11ParseSplitVEPKNS_8OperatorEPNS_13ErrorReporterEPNS_20BuiltinDataAllocatorEPPv
40063054 g     F .text	0000000c __subsf3
40002108 g     F .text	00000008 _ZN6tflite12ParseGreaterEPKNS_8OperatorEPNS_13ErrorReporterEPNS_20BuiltinDataAllocatorEPPv
40062b7c g     F .text	00000008 getpid
4005ff94 g     F .text	00000048 _ZN6tflite16MicroInterpreterD2Ev
40076968 g     O .rodata	00000004 _ZN6tflite25kSvdfWeightsFeatureTensorE
4005cf6c g     F .text	000003c0 _ZN6tflite19GreedyMemoryPlanner15PrintMemoryPlanEv
400560f0 g     F .text	0000004c _ZN6tflite13Register_SVDFEv
4004d834 g     F .text	000000b8 _ZN6tflite3ops5micro7split_v7PrepareEP13TfLiteContextP10TfLiteNode
40065da0 g     F .text	0000017c sqrtf
4001e5bc g     F .text	00000254 _ZN6tflite11ConvPrepareEP13TfLiteContextP10TfLiteNode
0081696c  w      .debug_info	00000000 .hidden uart.c.7bb9b26c
4004de20  w    F .text	0000029c _ZN6tflite3ops5micro7split_v9SplitImplIsEE12TfLiteStatusP13TfLiteContextP10TfLiteNodePK16TfLiteEvalTensori
4000288c g     F .text	00000008 _ZN6tflite10ParseRelu6EPKNS_8OperatorEPNS_13ErrorReporterEPNS_20BuiltinDataAllocatorEPPv
4005ff94 g     F .text	00000048 _ZN6tflite16MicroInterpreterD1Ev
40001430 g     F .text	00000008 _ZN6tflite8ParseAbsEPKNS_8OperatorEPNS_13ErrorReporterEPNS_20BuiltinDataAllocatorEPPv
400681bc g     F .text	0000007c getc
4006198c g     F .text	00000114 _ZN6tflite14MockMicroGraphC2EPNS_21SimpleMemoryAllocatorE
4004af64 g     F .text	0000000c _ZN6tflite11SoftmaxInitEP13TfLiteContextPKcj
40001c2c g     F .text	00000008 _ZN6tflite8ParseCosEPKNS_8OperatorEPNS_13ErrorReporterEPNS_20BuiltinDataAllocatorEPPv
40076874 g     O .rodata	00000004 _ZN6tflite28kFullyConnectedWeightsTensorE
40061974 g     F .text	00000008 _ZN6tflite14MockMicroGraph12NumSubgraphsEv
4003167c g     F .text	0000004c _ZN6tflite3ops5micro12Register_SINEv
400004bc g     F .text	00000038 putsnonl
40076868 g     O .rodata	00000004 _ZN6tflite25kFullyConnectedBiasTensorE
4000ea58 g     F .text	0000000c _ZN6tflite3ops5micro11comparisons4InitEP13TfLiteContextPKcj
40064be0 g     F .text	00000024 memcpy
4001baa4 g     F .text	0000004c _ZN6tflite3ops5micro19Register_LESS_EQUALEv
4000506c g     F .text	00003890 _ZN6tflite14AllOpsResolverC2Ev
400768e4 g     O .rodata	00000004 _ZN6tflite19kPoolingInputTensorE
40000e84 g     F .text	0000000c perf_print_all_counters
400647b0 g     F .text	00000094 __floatsidf
403de854 g     O .bss	00000001 _ZN10micro_test13did_test_failE
40062df4 g     F .text	00000004 __ltdf2
40026580 g     F .text	00000100 _ZN6tflite24DepthwiseConvParamsFloatERK25TfLiteDepthwiseConvParamsRKNS_10OpDataConvE
4005f2e0 g     F .text	00000004 _ZN6tflite10MicroGraphD1Ev
40000020 g     F .text	0000001c isr
4005f0d8 g     F .text	00000004 _ZN6tflite12MicroContextD2Ev
40026a78 g     F .text	00000290 _ZN6tflite20DepthwiseConvPrepareEP13TfLiteContextP10TfLiteNode
4005552c g     F .text	00000574 _ZN6tflite7EvalSubEP13TfLiteContextP10TfLiteNodeP15TfLiteSubParamsPKNS_9OpDataSubEPK16TfLiteEvalTensorSB_PS9_
4006546c g     F .text	0000007c puts
400664e0 g     F .text	000003b4 __ieee754_logf
4005f18c g     F .text	00000008 _ZN6tflite12MicroContext23SetScratchBufferHandlesEPNS_19ScratchBufferHandleE
4004d938  w    F .text	0000022c _ZN6tflite3ops5micro7split_v9SplitImplIfEE12TfLiteStatusP13TfLiteContextP10TfLiteNodePK16TfLiteEvalTensori
40001efc g     F .text	00000008 _ZN6tflite15ParseDequantizeEPKNS_8OperatorEPNS_13ErrorReporterEPNS_20BuiltinDataAllocatorEPPv
4005f168 g     F .text	00000024 _ZN6tflite12MicroContextC2EPNS_14MicroAllocatorEPKNS_5ModelEPNS_10MicroGraphE
4006272c g     F .text	000000dc _Z15tflite_classifyv
4000091c g     F .text	0000000c do_functional_cfu_tests
400767cc g     O .rodata	00000004 _ZN6tflite16kAddInputTensor2E
40048ab0 g     F .text	00000ce0 _ZN6tflite3ops5micro23resize_nearest_neighbor4EvalEP13TfLiteContextP10TfLiteNode
40004c60  w    F .text	00000004 _ZN6tflite14AllOpsResolverD0Ev
40052748 g     F .text	0000000c _ZN6tflite7SubInitEP13TfLiteContextPKcj
40002e70 g     F .text	00000008 _ZN6tflite19ParseSpaceToBatchNdEPKNS_8OperatorEPNS_13ErrorReporterEPNS_20BuiltinDataAllocatorEPPv
40067fb4 g     F .text	00000088 roundf
400626a8 g     F .text	0000005c _Z16tflite_set_inputPKv
40000928 g     F .text	00000150 menu_run
40076964 g     O .rodata	00000004 _ZN6tflite22kSvdfWeightsTimeTensorE
400767e4 g     O .rodata	00000004 _ZN6tflite18kConvWeightsTensorE
400390b0 g     F .text	0000002c _ZN6tflite3ops5micro16Register_MAXIMUMEv
40000494 g     F .text	0000000c models_menu
40042b88 g     F .text	000005ec _ZN6tflite25BroadcastPrelu4DSlowFloatERKNS_12RuntimeShapeEPKfS2_S4_S2_Pf
40075790  w    O .rodata	00000038 _ZTVN6tflite14MockMicroGraphE
40065154 g     F .text	00000004 strtoll
40062b8c g     F .text	00000060 __lesf2
40037f74 g     F .text	0000002c _ZN6tflite20Register_LOGICAL_ANDEv
400649a8 g     F .text	00000084 __fixunsdfsi
40055aa0 g     F .text	00000138 _ZN6tflite7SubEvalEP13TfLiteContextP10TfLiteNode
400569b0 g     F .text	00000830 _ZN6tflite21EvalInt8SvdfReferenceEP13TfLiteContextP10TfLiteNodePK16TfLiteEvalTensorS6_S6_S6_PK16TfLiteSVDFParamsPS4_SA_RKNS_10OpDataSvdfE
400022d4 g     F .text	00000008 _ZN6tflite8ParseLogEPKNS_8OperatorEPNS_13ErrorReporterEPNS_20BuiltinDataAllocatorEPPv
4005fc98 g     F .text	0000005c _ZN6tflite10MicroGraphC2EP13TfLiteContextPKNS_5ModelEPNS_14MicroAllocatorEPNS_22MicroResourceVariablesE
4005f26c g     F .text	00000040 _Z11MicroPrintfPKcz
400420f8 g     F .text	00000a44 _ZN6tflite9PreluEvalEP13TfLiteContextP10TfLiteNode
40065fe4 g     F .text	0000004c __fpclassifyf
400740c8 g     O .rodata	00000800 _ZN6tflite26kConvGoldenOutput1x16x16x8E
400091c0 g     F .text	000000e4 _ZN6tflite10Relu6FloatERKNS_12RuntimeShapeEPKfS2_Pf
400526fc g     F .text	0000004c _ZN6tflite3ops5micro22Register_STRIDED_SLICEEv
4005fd08 g     F .text	00000120 _ZN6tflite16MicroInterpreterC2EPKNS_5ModelERKNS_15MicroOpResolverEPhjPNS_13ErrorReporterEPNS_22MicroResourceVariablesEPNS_13MicroProfilerE
403de830 g     O .data	00000004 .hidden __dso_handle
40052754 g     F .text	0000004c _ZN6tflite12Register_SUBEv
40008afc g     F .text	00000040 _ZN6tflite20NumSubgraphOperatorsEPKNS_8SubGraphE
400384b8 g     F .text	0000004c _ZN6tflite17Register_LOGISTICEv
00000000 g       *ABS*	00000000 __DYNAMIC
400656b0 g     F .text	000006f0 __i_vfprintf
40034ff4  w    F .text	00000010 _ZN6tflite21MicroContextGetTensorEPK13TfLiteContexti
4004e0bc  w    F .text	0000022c _ZN6tflite3ops5micro7split_v9SplitImplIlEE12TfLiteStatusP13TfLiteContextP10TfLiteNodePK16TfLiteEvalTensori
40033f08 g     F .text	0000004c _ZN6tflite18Register_FLOOR_MODEv
400634ac g     F .text	000002f0 __udivmoddi4
40026534 g     F .text	0000004c _ZN6tflite26Register_DEPTHWISE_CONV_2DEv
40062808 g     F .text	00000040 tflite_do_tests
400004f4 g     F .text	0000000c TfLiteIntArrayGetSizeInBytes
40037b94  w    F .text	0000039c _ZN8gemmlowp22exp_on_negative_valuesIlLi5EEENS_10FixedPointIT_Li0EEENS1_IS2_XT0_EEE
400693f8 g     F .text	0000002c .hidden __math_xflowf
40043174 g     F .text	000001d8 _ZN6tflite12PreluPrepareEP13TfLiteContextP10TfLiteNode
400582ac  w    F .text	0000068c _ZN8gemmlowp40one_minus_x_over_one_plus_x_for_x_in_0_1IlEENS_10FixedPointIT_Li0EEES3_
4005cec4 g     F .text	000000a8 _ZN6tflite19GreedyMemoryPlanner20GetMaximumMemorySizeEv
4006827c g     F .text	0000000c fabsf
400030d0 g     F .text	000001e0 _ZN6tflite12ParseSqueezeEPKNS_8OperatorEPNS_13ErrorReporterEPNS_20BuiltinDataAllocatorEPPv
4006bb6c  w    O .rodata	00000260 _ZZN6tflite24EnumNamesBuiltinOperatorEvE5names
40001b2c g     F .text	00000100 _ZN6tflite11ParseCumsumEPKNS_8OperatorEPNS_13ErrorReporterEPNS_20BuiltinDataAllocatorEPPv
40001250 g     F .text	00000010 _Z12software_cfuiimm
400752e0  w    O .rodata	00000038 _ZTVN6tflite10MicroGraphE
400767dc g     O .rodata	00000004 _ZN6tflite16kConvInputTensorE
400023e4 g     F .text	000000dc _ZN6tflite8ParseMulEPKNS_8OperatorEPNS_13ErrorReporterEPNS_20BuiltinDataAllocatorEPPv
40001788 g     F .text	00000008 _ZN6tflite19ParseBatchToSpaceNdEPKNS_8OperatorEPNS_13ErrorReporterEPNS_20BuiltinDataAllocatorEPPv
4006960c g     F .text	000000dc .hidden __extendsfdf2
400768a4 g     O .rodata	00000004 _ZN6tflite13kOutputTensorE
4006197c  w    F .text	00000010 _ZN6tflite14MockMicroGraphD1Ev
4003482c g     F .text	000000d4 _ZN6tflite29CalculateOpDataFullyConnectedEP13TfLiteContext21TfLiteFusedActivation10TfLiteTypePK12TfLiteTensorS6_S6_PS4_PNS_20OpDataFullyConnectedE
40063b10 g     F .text	0000044c __adddf3
40062c84 g     F .text	00000004 __nesf2
40002c7c g     F .text	00000008 _ZN6tflite10ParseRsqrtEPKNS_8OperatorEPNS_13ErrorReporterEPNS_20BuiltinDataAllocatorEPPv
4000d8ac g     F .text	00000008 _ZN6tflite3ops5micro11arg_min_max10ArgMaxEvalEP13TfLiteContextP10TfLiteNode
40064b44 g     F .text	00000024 __umoddi3
40035004  w    F .text	00000010 _ZN6tflite25MicroContextGetEvalTensorEPK13TfLiteContexti
400032c0 g     F .text	00000170 _ZN6tflite17ParseStridedSliceEPKNS_8OperatorEPNS_13ErrorReporterEPNS_20BuiltinDataAllocatorEPPv
40001f34 g     F .text	00000008 _ZN6tflite13ParseFloorDivEPKNS_8OperatorEPNS_13ErrorReporterEPNS_20BuiltinDataAllocatorEPPv
400021f8 g     F .text	000000cc _ZN6tflite14ParseLeakyReluEPKNS_8OperatorEPNS_13ErrorReporterEPNS_20BuiltinDataAllocatorEPPv
40008edc g     F .text	0000004c _ZN6tflite14Register_RELU6Ev
4005cb3c g     F .text	00000010 _ZN6tflite19GreedyMemoryPlannerC2Ev
4006910c g     F .text	00000188 __kernel_sinf
40039108  w    F .text	00000224 _ZN6tflite15NDOpsHelperImplILi5ELi1EZNS_13reference_ops27MaximumMinimumBroadcastSlowIfPFfffELi5EEEvRKNS_12RuntimeShapeEPKT_S7_SA_S7_PS8_T0_EUlPiE_EENSt9enable_ifIXneT0_miT_Li1EEvE4typeERKNS_11NdArrayDescIXT_EEERKT1_SD_
4005c0bc g     F .text	0000004c _ZN6tflite23Register_TRANSPOSE_CONVEv
40041a14 g     F .text	00000420 _ZN6tflite19MaxPoolingEvalFloatEP13TfLiteContextP10TfLiteNodeP16TfLitePoolParamsPKNS_13OpDataPoolingEPK16TfLiteEvalTensorPS9_
4006197c  w    F .text	00000010 _ZN6tflite14MockMicroGraphD0Ev
4000d8b4 g     F .text	0000002c _ZN6tflite3ops5micro16Register_ARG_MAXEv
400734a8 g     O .rodata	00000020 _ZN6tflite19kConvBiasQuantized8E
40064b3c g     F .text	00000008 __udivdi3
400004a0 g     F .text	0000001c readchar
4002c5e8  w    F .text	0000000c _ZN11flexbuffers10KeyCompareIyEEiPKvS2_
40040fd8 g     F .text	0000004c _ZN6tflite24Register_AVERAGE_POOL_2DEv
4005f0d8 g     F .text	00000004 _ZN6tflite12MicroContextD0Ev
40064d48 g     F .text	00000018 abort
40064844 g     F .text	00000074 __floatunsidf
40008bb0 g     F .text	00000004 _ZN6tflite33FlatBufferVectorToTfLiteTypeArrayEPKN11flatbuffers6VectorIlEE
40008e90 g     F .text	0000004c _ZN6tflite13Register_RELUEv
40001f2c g     F .text	00000008 _ZN6tflite10ParseFloorEPKNS_8OperatorEPNS_13ErrorReporterEPNS_20BuiltinDataAllocatorEPPv
40000e9c g     F .text	00000100 murmurhash3_32
40002c74 g     F .text	00000008 _ZN6tflite10ParseRoundEPKNS_8OperatorEPNS_13ErrorReporterEPNS_20BuiltinDataAllocatorEPPv
4005ec28 g     F .text	0000016c _ZN6tflite14MicroAllocator20StartModelAllocationEPKNS_5ModelE
4005d408 g     F .text	00000010 _ZN6tflite14MicroAllocator20ResetTempAllocationsEv
40003cf4 g     F .text	0000018c _ZN6tflite24PreprocessSoftmaxScalingEddiPlPi
4007522c  w    O .rodata	00000014 _ZTVN6tflite18MicroErrorReporterE
40032da8 g     F .text	0000014c _ZN6tflite3ops5micro5floor4EvalEP13TfLiteContextP10TfLiteNode
40068288 g     F .text	0000045c rem_pio2f
40025230 g     F .text	0000004c _ZN6tflite15Register_CUMSUMEv
4005d3cc  w    F .text	00000008 _ZN6tflite18MicroMemoryPlanner9AddBufferEPNS_13ErrorReporterEiiii
4004d4c0  w    F .text	00000200 _ZN6tflite3ops5micro5split9SplitImplIlEE12TfLiteStatusP13TfLiteContextP10TfLiteNodePK16TfLiteEvalTensori
40066030 g     F .text	0000032c __ieee754_expf
40064edc g     F .text	00000028 strtol
400433a4 g     F .text	000002dc _ZN6tflite24PrepareQuantizeReferenceEP13TfLiteContextP10TfLiteNode
40032184 g     F .text	0000004c _ZN6tflite12Register_EXPEv
40066978 g     F .text	000000ac cosf
40068198 g     F .text	00000024 strnlen
4003b628 g     F .text	0000004c _ZN6tflite12Register_MULEv
40008b3c g     F .text	00000074 _ZN6tflite20NumSubgraphOperatorsEPKNS_5ModelEi
40062658 g     F .text	00000050 _Z22tflite_set_input_zerosv
4003e4b4 g     F .text	00002838 _ZN6tflite3ops5micro3pad4EvalEP13TfLiteContextP10TfLiteNode
404ad880 g       .bss	00000000 _ebss
4005d3d4  w    F .text	00000008 _ZN6tflite18MicroMemoryPlanner4InitEPhi
4003cd38 g     F .text	000008fc _ZN6tflite21EvalMulFloatReferenceEP13TfLiteContextP10TfLiteNodeP15TfLiteMulParamsPKNS_9OpDataMulEPK16TfLiteEvalTensorSB_PS9_
400616a0 g     F .text	000002a0 _ZN6tflite33SignedSymmetricPerChannelQuantizeEPKfP14TfLiteIntArrayiPaPf
400571e0 g     F .text	00000598 _ZN6tflite22EvalFloatSvdfReferenceEP13TfLiteContextP10TfLiteNodePK16TfLiteEvalTensorS6_S6_S6_PK16TfLiteSVDFParamsiPS4_SA_
40035ee8 g     F .text	000008bc _ZN6tflite3ops5micro6l2norm4EvalEP13TfLiteContextP10TfLiteNode
40035c9c g     F .text	0000000c _ZN6tflite3ops5micro6l2norm4InitEP13TfLiteContextPKcj
40076858  w    O .rodata	00000004 _ZZN11flexbuffers3Map8EmptyMapEvE9empty_map
40004be8  w    F .text	00000010 _ZNK6tflite10OpResolver12GetDelegatesEi
4004e2e8 g     F .text	00000188 _ZN6tflite3ops5micro7split_v4EvalEP13TfLiteContextP10TfLiteNode
4000c0ec g     F .text	000002c4 _ZN6tflite18CalculateOpDataAddEP13TfLiteContextP15TfLiteAddParamsPK12TfLiteTensorS6_PS4_PNS_9OpDataAddE
4005d66c g     F .text	00000054 _ZN6tflite14MicroAllocator28AllocateScratchBufferHandlesEPPNS_19ScratchBufferHandleEj
4000003c g     F .text	00000010 init_runtime
40001f14 g     F .text	00000008 _ZN6tflite8ParseExpEPKNS_8OperatorEPNS_13ErrorReporterEPNS_20BuiltinDataAllocatorEPPv
40001f3c g     F .text	00000008 _ZN6tflite13ParseFloorModEPKNS_8OperatorEPNS_13ErrorReporterEPNS_20BuiltinDataAllocatorEPPv
40064910 g     F .text	00000098 __fixdfsi
40032ef4 g     F .text	0000002c _ZN6tflite3ops5micro14Register_FLOOREv
40031d98 g     F .text	0000000c _ZN6tflite16GetString_ETHOSUEv
4ffffffc g       .bss	00000000 _fstack
403de898 g     O .bss	00000001 __lock___libc_recursive_mutex
400686e4 g     F .text	0000019c __kernel_cosf
4004cce0 g     F .text	00000090 _ZN6tflite3ops5micro5split7PrepareEP13TfLiteContextP10TfLiteNode
40061f94 g     F .text	00000218 _ZN6tflite7testing35CreatePerChannelQuantizedBiasTensorEPKfPxP14TfLiteIntArrayfPfS6_PiP24TfLiteAffineQuantizationib
4005f100 g     F .text	00000028 _ZN6tflite12MicroContext9GetTensorEi
40060a18 g     F .text	00000048 _ZN6tflite13MicroProfiler8EndEventEm
400767a8 g     O .rodata	00000004 _ZN6tflite24kActivationsOutputTensorE
4005d418 g     F .text	00000018 _ZN6tflite14MicroAllocator38AllocatePersistentTfLiteTensorInternalEv
40026680 g     F .text	000000c4 _ZN6tflite28DepthwiseConvParamsQuantizedERK25TfLiteDepthwiseConvParamsRKNS_10OpDataConvE
40057778 g     F .text	00000888 _ZN6tflite11PrepareSvdfEP13TfLiteContextP10TfLiteNode
40062a68 g     F .text	000000d0 uart_isr
40060cc8 g     F .text	000000c8 _ZN6tflite22MicroResourceVariables8AllocateEiP13TfLiteContextPK12TfLiteTensor
400527a0  w    F .text	00000c58 _ZN6tflite13reference_ops21BroadcastQuantSubSlowIaLi5EEEvRKNS_16ArithmeticParamsERKNS_12RuntimeShapeEPKT_S7_SA_S7_PS8_
40062c88 g     F .text	00000004 __gtsf2
40004bf8  w    F .text	00000010 _ZNK6tflite10OpResolver19GetDelegateCreatorsEv
40008918 g     F .text	00000070 _ZN6tflite16FakeMicroContext13GetEvalTensorEi
40061624 g     F .text	0000007c _ZN6tflite15EvalTensorBytesEPK16TfLiteEvalTensor
4005c748 g     F .text	00000014 _ZN6tflite14AlignPointerUpEPhj
40060a60 g     F .text	000000ac _ZNK6tflite13MicroProfiler6LogCsvEv
40064b68 g     F .text	0000003c __lshrdi3
40047790 g     F .text	00000138 _ZN6tflite3ops5micro7reshape7PrepareEP13TfLiteContextP10TfLiteNode
40062b88 g     F .text	00000004 kill
40046f28 g     F .text	000001d4 _ZN6tflite3ops5micro6reduce13PrepareSimpleEP13TfLiteContextP10TfLiteNode
40062c8c g     F .text	00000094 __ledf2
4005f0d8 g     F .text	00000004 _ZN6tflite12MicroContextD1Ev
4004e940 g     F .text	0000004c _ZN6tflite16Register_SQUEEZEEv
400092a4 g     F .text	0000007c _ZN6tflite14Relu6QuantizedEaaRKNS_12RuntimeShapeEPKaS2_Pa
400533f8  w    F .text	00000d98 _ZN6tflite13reference_ops21BroadcastQuantSubSlowIsLi5EEEvRKNS_16ArithmeticParamsERKNS_12RuntimeShapeEPKT_S7_SA_S7_PS8_
4003a024  w    F .text	00000464 _ZN6tflite13reference_ops27MaximumMinimumBroadcastSlowIlPFlllELi5EEEvRKNS_12RuntimeShapeEPKT_S6_S9_S6_PS7_T0_
4004cd70 g     F .text	0000004c _ZN6tflite3ops5micro14Register_SPLITEv
40067b50 g     F .text	00000010 .hidden __math_oflow
4005fcf4 g     F .text	00000008 _ZN6tflite10MicroGraph22SetSubgraphAllocationsEPNS_19SubgraphAllocationsE
400316c8 g     F .text	0000004c _ZN6tflite3ops5micro12Register_COSEv
40009de8 g     F .text	00002188 _ZN6tflite16EvalAddQuantizedEP13TfLiteContextP10TfLiteNodeP15TfLiteAddParamsPKNS_9OpDataAddEPK16TfLiteEvalTensorSB_PS9_
4005f0dc g     F .text	00000010 _ZN6tflite12MicroContext24AllocatePersistentBufferEj
4000dbe4 g     F .text	0000004c _ZN6tflite24Register_ASSIGN_VARIABLEEv
4007694c g     O .rodata	00000004 _ZN6tflite16kSubOutputTensorE
40069428 g     F .text	00000004 __retarget_lock_release_recursive
4005f2e4 g     F .text	0000003c _ZN6tflite10MicroGraph12NumSubgraphsEv
40034d40 g     F .text	0000004c _ZN6tflite19Register_HARD_SWISHEv
4005cb4c g     F .text	00000378 _ZN6tflite19GreedyMemoryPlanner24CalculateOffsetsIfNeededEv
400022dc g     F .text	00000008 _ZN6tflite15ParseLogicalAndEPKNS_8OperatorEPNS_13ErrorReporterEPNS_20BuiltinDataAllocatorEPPv
4001b928 g     F .text	0000004c _ZN6tflite3ops5micro14Register_EQUALEv
4006803c g     F .text	0000000c .hidden __math_uflowf
40036848  w    F .text	0000036c _ZN6tflite17QuantizeLeakyReluIaEEvRKNS_15LeakyReluOpDataEPK16TfLiteEvalTensorPS4_
40061c38 g     F .text	00000094 _ZN6tflite21SimpleMemoryAllocator6CreateEPNS_13ErrorReporterEPhj
4004d6c0 g     F .text	00000174 _ZN6tflite3ops5micro5split4EvalEP13TfLiteContextP10TfLiteNode
40061ccc g     F .text	00000008 _ZNK6tflite21SimpleMemoryAllocator13GetHeadBufferEv
4000ceb0 g     F .text	000009f4 _ZN6tflite3ops5micro11arg_min_max4EvalEP13TfLiteContextP10TfLiteNodeb
40064a2c g     F .text	00000098 __clzsi2
4000123c g     F .text	0000000c do_proj_menu
40062b38 g     F .text	00000044 uart_init
40002a74 g     F .text	00000100 _ZN6tflite19ParseResizeBilinearEPKNS_8OperatorEPNS_13ErrorReporterEPNS_20BuiltinDataAllocatorEPPv
4005c8f8 g     F .text	000000b4 _ZN6tflite26TfLiteEvalTensorByteLengthEPK16TfLiteEvalTensorPj
4007697c g     O .rodata	00000004 stdin
4005c6fc g     F .text	0000004c _ZN6tflite19Register_VAR_HANDLEEv
40061ab0 g     F .text	0000006c _ZN6tflite21SimpleMemoryAllocator12AllocateTempEjj
40031760 g     F .text	0000004c _ZN6tflite3ops5micro13Register_SQRTEv
40036f3c g     F .text	00000198 _ZN6tflite13LeakyReluEvalEP13TfLiteContextP10TfLiteNode
40001858 g     F .text	00000008 _ZN6tflite9ParseCeilEPKNS_8OperatorEPNS_13ErrorReporterEPNS_20BuiltinDataAllocatorEPPv
40000000 g       .text	00000000 _ftext
40076818 g     O .rodata	00000004 _ZN6tflite25kDepthwiseConvInputTensorE
400767c8 g     O .rodata	00000004 _ZN6tflite16kAddInputTensor1E
400089c0  w    F .text	00000010 _ZN6tflite16FakeMicroContextD2Ev
40000000 g       .text	00000000 _start
40008f28 g     F .text	000001c0 _ZN6tflite13ReluQuantizedERKNS_10ReluOpDataERKNS_12RuntimeShapeES5_PKaPa
400592b8  w    F .text	00000390 _ZN6tflite13reference_ops13TransposeImplIaLi5EEEvRKNS_15TransposeParamsERKNS_12RuntimeShapeEPKT_S7_PS8_
40004c64  w    F .text	00000050 _ZNK6tflite22MicroMutableOpResolverILj128EE15GetOpDataParserENS_15BuiltinOperatorE
40069444 g     F .text	000001c8 .hidden __floatundidf
40002c84 g     F .text	00000118 _ZN6tflite10ParseShapeEPKNS_8OperatorEPNS_13ErrorReporterEPNS_20BuiltinDataAllocatorEPPv
40003430 g     F .text	00000110 _ZN6tflite8ParseSubEPKNS_8OperatorEPNS_13ErrorReporterEPNS_20BuiltinDataAllocatorEPPv
4005f71c g     F .text	00000214 _ZN6tflite10MicroGraph14InvokeSubgraphEi
40034fd4  w    F .text	00000010 _ZN6tflite39MicroContextRequestScratchBufferInArenaEP13TfLiteContextjPi
40004c60  w    F .text	00000004 _ZN6tflite14AllOpsResolverD1Ev
400768dc g     O .rodata	00000004 _ZN6tflite16kMulInput2TensorE
40038504  w    F .text	00000328 _ZN8gemmlowp22exp_on_negative_valuesIlLi4EEENS_10FixedPointIT_Li0EEENS1_IS2_XT0_EEE
4006379c g     F .text	000000bc __floatsisf
4005f43c g     F .text	0000007c _ZN6tflite10MicroGraph18NumSubgraphOutputsEi
400089d0 g     F .text	000000a4 _ZN6tflite16FakeMicroContext27RequestScratchBufferInArenaEjPi
40003e80 g     F .text	000000dc _ZN6tflite20CalculateInputRadiusEiii
40061964 g     F .text	00000008 _ZN6tflite14MockMicroGraph18NumSubgraphOutputsEi
400473cc g     F .text	0000004c _ZN6tflite3ops5micro19Register_REDUCE_MAXEv
4005f4b8 g     F .text	000000a0 _ZN6tflite10MicroGraph17GetSubgraphOutputEii
4001e298 g     F .text	00000324 _ZN6tflite19CalculateOpDataConvEP13TfLiteContextP10TfLiteNodeRK16TfLiteConvParamsiiiiii10TfLiteTypePNS_10OpDataConvE
4005c5ec g     F .text	0000002c _ZN6tflite3ops5micro15Register_UNPACKEv
400653cc g     F .text	00000040 strncmp
400024d0 g     F .text	000000f8 _ZN6tflite9ParsePackEPKNS_8OperatorEPNS_13ErrorReporterEPNS_20BuiltinDataAllocatorEPPv
4001b9c0 g     F .text	0000004c _ZN6tflite3ops5micro16Register_GREATEREv
4005d434 g     F .text	00000104 _ZN6tflite14MicroAllocator28AllocateNodeAndRegistrationsEPKNS_5ModelEPNS_19SubgraphAllocationsE
40039e00  w    F .text	00000224 _ZN6tflite15NDOpsHelperImplILi5ELi1EZNS_13reference_ops27MaximumMinimumBroadcastSlowIlPFlllELi5EEEvRKNS_12RuntimeShapeEPKT_S7_SA_S7_PS8_T0_EUlPiE_EENSt9enable_ifIXneT0_miT_Li1EEvE4typeERKNS_11NdArrayDescIXT_EEERKT1_SD_
40043680 g     F .text	00000e48 _ZN6tflite21EvalQuantizeReferenceEP13TfLiteContextP10TfLiteNode
40060478 g     F .text	000004a8 _ZN6tflite16MicroInterpreter15AllocateTensorsEv
40062c7c g     F .text	00000004 __eqsf2
40035214 g     F .text	0000003c _ZN6tflite5micro12GetEvalInputEPK13TfLiteContextPK10TfLiteNodei
40049c20 g     F .text	0000004c _ZN6tflite3ops5micro14Register_ROUNDEv
40002884 g     F .text	00000008 _ZN6tflite9ParseReluEPKNS_8OperatorEPNS_13ErrorReporterEPNS_20BuiltinDataAllocatorEPPv
400024c0 g     F .text	00000008 _ZN6tflite8ParseNegEPKNS_8OperatorEPNS_13ErrorReporterEPNS_20BuiltinDataAllocatorEPPv
4000367c g     F .text	00000008 _ZN6tflite14ParseTransposeEPKNS_8OperatorEPNS_13ErrorReporterEPNS_20BuiltinDataAllocatorEPPv
40051988 g     F .text	00000808 _ZN6tflite3ops5micro13strided_slice15CheckOutputSizeEP13TfLiteContextPNS2_19StridedSliceContextE
40003fac g     F .text	000000cc _ZN6tflite12GetInputSafeEPK13TfLiteContextPK10TfLiteNodeiPPK12TfLiteTensor
4005ca08 g     F .text	00000004 _ZN6tflite19GreedyMemoryPlannerD0Ev
400039a4 g     F .text	0000017c _ZN6tflite25GetRegistrationFromOpCodeEPKNS_12OperatorCodeERKNS_10OpResolverEPNS_13ErrorReporterEPPK18TfLiteRegistration
4007681c g     O .rodata	00000004 _ZN6tflite26kDepthwiseConvOutputTensorE
40034fe4  w    F .text	00000010 _ZN6tflite28MicroContextGetScratchBufferEP13TfLiteContexti
4001e098 g     F .text	0000004c _ZN6tflite16Register_CONV_2DEv
4006538c g     F .text	00000010 __cxa_atexit
4005c9ac g     F .text	0000005c _ZN6tflite19GreedyMemoryPlanner4InitEPhi
4003d76c g     F .text	0000002c _ZN6tflite3ops5micro12Register_NEGEv
40001f0c g     F .text	00000008 _ZN6tflite10ParseEqualEPKNS_8OperatorEPNS_13ErrorReporterEPNS_20BuiltinDataAllocatorEPPv
4003d634 g     F .text	00000138 _ZN6tflite3ops5micro3neg4EvalEP13TfLiteContextP10TfLiteNode
400022e4 g     F .text	00000008 _ZN6tflite15ParseLogicalNotEPKNS_8OperatorEPNS_13ErrorReporterEPNS_20BuiltinDataAllocatorEPPv
40038490 g     F .text	0000000c _ZN6tflite9LogicalOrEbb
400621ac g     F .text	00000124 _ZN6tflite7testing40CreateSymmetricPerChannelQuantizedTensorEPKfPaP14TfLiteIntArrayPfPiP24TfLiteAffineQuantizationib
40000e80 g     F .text	00000004 perf_reset_all_counters
4006539c g     F .text	00000030 memcmp
40001550 g     F .text	00000118 _ZN6tflite11ParseArgMaxEPKNS_8OperatorEPNS_13ErrorReporterEPNS_20BuiltinDataAllocatorEPPv
40055dd4 g     F .text	00000120 _ZN6tflite10SubPrepareEP13TfLiteContextP10TfLiteNode
4006198c g     F .text	00000114 _ZN6tflite14MockMicroGraphC1EPNS_21SimpleMemoryAllocatorE
4005c768 g     F .text	00000014 _ZN6tflite11AlignSizeUpEjj
400497dc g     F .text	000002e0 _ZN6tflite3ops5micro5round7PrepareEP13TfLiteContextP10TfLiteNode
40076880 g     O .rodata	00000004 _ZN6tflite21kHardSwishInputTensorE
400767d8 g     O .rodata	00000004 _ZN6tflite15kConvBiasTensorE
40002118 g     F .text	00000008 _ZN6tflite14ParseHardSwishEPKNS_8OperatorEPNS_13ErrorReporterEPNS_20BuiltinDataAllocatorEPPv
400643fc g     F .text	000003b4 __divdf3
4000d8a4 g     F .text	00000008 _ZN6tflite3ops5micro11arg_min_max10ArgMinEvalEP13TfLiteContextP10TfLiteNode
400758fc  w    O .rodata	00000020 _ZTVN6tflite21SimpleMemoryAllocatorE
40001248 g     F .text	00000004 _Z14tflite_preloadPKhj
4005f194 g     F .text	00000058 _ZN6tflite25MicroContextReportOpErrorEP13TfLiteContextPKcz
400027a0 g     F .text	00000008 _ZN6tflite10ParsePreluEPKNS_8OperatorEPNS_13ErrorReporterEPNS_20BuiltinDataAllocatorEPPv
40042b3c g     F .text	0000004c _ZN6tflite14Register_PRELUEv
40025aa0 g     F .text	0000004c _ZN6tflite23Register_DEPTH_TO_SPACEEv
40063ff4 g     F .text	00000388 __muldf3
40031714 g     F .text	0000004c _ZN6tflite3ops5micro12Register_LOGEv
4005d9d0 g     F .text	0000092c _ZN6tflite14MicroAllocator22CommitStaticMemoryPlanEPKNS_5ModelEP16TfLiteEvalTensorPNS_19ScratchBufferHandleEi
40049abc g     F .text	00000164 _ZN6tflite3ops5micro5round4EvalEP13TfLiteContextP10TfLiteNode
400025d8 g     F .text	000001c8 _ZN6tflite9ParsePoolEPKNS_8OperatorEPNS_13ErrorReporterEPNS_20BuiltinDataAllocatorEPPv
4006635c g     F .text	00000184 __ieee754_fmodf
40041e34 g     F .text	000002b8 _ZN6tflite23MaxPoolingEvalQuantizedEP13TfLiteContextP10TfLiteNodeP16TfLitePoolParamsPKNS_13OpDataPoolingEPK16TfLiteEvalTensorPS9_
40002304 g     F .text	00000008 _ZN6tflite12ParseMinimumEPKNS_8OperatorEPNS_13ErrorReporterEPNS_20BuiltinDataAllocatorEPPv
40002120 g     F .text	000000d8 _ZN6tflite20ParseL2NormalizationEPKNS_8OperatorEPNS_13ErrorReporterEPNS_20BuiltinDataAllocatorEPPv
40076948 g     O .rodata	00000004 _ZN6tflite16kSubInputTensor2E
400692e8 g     F .text	00000110 scalbnf
4004af70 g     F .text	00000c2c _ZN6tflite14SoftmaxPrepareEP13TfLiteContextP10TfLiteNode
40038df0 g     F .text	000001c8 _ZN6tflite15LogisticPrepareEP13TfLiteContextP10TfLiteNode
40002894 g     F .text	000001e0 _ZN6tflite12ParseReshapeEPKNS_8OperatorEPNS_13ErrorReporterEPNS_20BuiltinDataAllocatorEPPv
40003b20 g     F .text	000000e8 _ZN6tflite18QuantizeMultiplierEdPlPi
40000560 g     F .text	0000002c TfLiteTypeGetName
40065388 g     F .text	00000004 strtoull
40062b8c g     F .text	00000060 __cmpsf2
4004e98c g     F .text	0000000c _ZN6tflite3ops5micro13strided_slice4InitEP13TfLiteContextPKcj
4000ea64 g     F .text	00000134 _ZN6tflite3ops5micro11comparisons7PrepareEP13TfLiteContextP10TfLiteNode
40069424 g     F .text	00000004 __retarget_lock_acquire_recursive
4000c0a0 g     F .text	0000004c _ZN6tflite12Register_ADDEv
40035250 g     F .text	00000018 _ZN6tflite5micro13GetEvalOutputEPK13TfLiteContextPK10TfLiteNodei
40065f8c g     F .text	00000058 fminf
400615c8 g     F .text	00000028 _ZN6tflite19GetCurrentTimeTicksEv
4002bac0 g     F .text	0000023c _ZN6tflite14DequantizeEvalEP13TfLiteContextP10TfLiteNode
40064c40 g     F .text	0000001c memset
4003849c g     F .text	00000010 _ZN6tflite10LogicalAndEbb
40065da0 g     F .text	0000017c __ieee754_sqrtf
40065f34 g     F .text	00000058 fmaxf
4005f2ac g     F .text	00000034 _ZN6tflite21GetMicroErrorReporterEv
40000458 g     F .text	0000003c main
40004194 g     F .text	00000050 _ZN6tflite22GetOptionalInputTensorEPK13TfLiteContextPK10TfLiteNodei
40062848 g       .text	00000000 trap_entry
4005d6c0 g     F .text	00000310 _ZN6tflite14MicroAllocator25AllocateTfLiteEvalTensorsEPKNS_5ModelEPNS_19SubgraphAllocationsE
40060920 g     F .text	00000064 _ZN6tflite16MicroInterpreter6InvokeEv
40002d9c g     F .text	00000008 _ZN6tflite8ParseSinEPKNS_8OperatorEPNS_13ErrorReporterEPNS_20BuiltinDataAllocatorEPPv
400351d8 g     F .text	0000003c _ZN6tflite5micro19GetMutableEvalInputEPK13TfLiteContextPK10TfLiteNodei
4005f0d0 g     F .text	00000008 _ZN6tflite14MicroAllocator23GetBuiltinDataAllocatorEv
40062c80 g     F .text	00000004 __ltsf2
4005ca08 g     F .text	00000004 _ZN6tflite19GreedyMemoryPlannerD2Ev
400022ec g     F .text	00000008 _ZN6tflite14ParseLogicalOrEPKNS_8OperatorEPNS_13ErrorReporterEPNS_20BuiltinDataAllocatorEPPv
4006197c  w    F .text	00000010 _ZN6tflite14MockMicroGraphD2Ev
40076b58 g     O .data	00367954 model_neural_net_svhn_tflite
40002f40 g     F .text	000000c8 _ZN6tflite10ParseSplitEPKNS_8OperatorEPNS_13ErrorReporterEPNS_20BuiltinDataAllocatorEPPv
4003ba34 g     F .text	00001304 _ZN6tflite25EvalMulQuantizedReferenceEP13TfLiteContextP10TfLiteNodePKNS_9OpDataMulEPK16TfLiteEvalTensorS9_PS7_
4004cc94 g     F .text	0000004c _ZN6tflite23Register_SPACE_TO_DEPTHEv
4005e740 g     F .text	000000c0 _ZN6tflite14MicroAllocator34PopulateTfLiteTensorFromFlatbufferEPKNS_5ModelEP12TfLiteTensoriib
400232f4  w    F .text	0000055c _ZN6tflite7testing27TestConvQuantizedPerChannelIalEE12TfLiteStatusPiPKfPT_fiS3_S5_PaS3_S5_PT0_PfS3_S3_S5_S7_fiP16TfLiteConvParams18TfLiteRegistrationS7_
400696e8 g     F .text	00000184 .hidden __truncdfsf2
400622d0 g     F .text	000000a0 _ZN6tflite14GetBuiltinCodeEPKNS_12OperatorCodeE
4006540c g     F .text	0000000c getchar
4004d8ec g     F .text	0000004c _ZN6tflite3ops5micro16Register_SPLIT_VEv
400351a0 g     F .text	00000038 _ZN6tflite5micro12KernelRunner6InvokeEv
4003dde8 g     F .text	000006cc _ZN6tflite3ops5micro3pad7PrepareEP13TfLiteContextP10TfLiteNode
40047b20 g     F .text	0000004c _ZN6tflite24Register_RESIZE_BILINEAREv
4005e800 g     F .text	000001ac _ZN6tflite14MicroAllocator24AllocateTempTfLiteTensorEPKNS_5ModelEPKNS_19SubgraphAllocationsEii
40061b90 g     F .text	000000a8 _ZN6tflite21SimpleMemoryAllocator17SetHeadBufferSizeEjj
4000506c g     F .text	00003890 _ZN6tflite14AllOpsResolverC1Ev
40004680 g     F .text	00000544 _ZN6tflite37PopulateConvolutionQuantizationParamsEP13TfLiteContextPK12TfLiteTensorS4_S4_PS2_RK21TfLiteFusedActivationPlPiS9_S9_S9_S9_i
400676b4 g     F .text	0000048c exp
40068238 g     F .text	00000044 putc
4007695c g     O .rodata	00000004 _ZN6tflite16kSvdfInputTensorE
400390dc g     F .text	0000002c _ZN6tflite3ops5micro16Register_MINIMUMEv
40063060 g     F .text	00000214 __mulsf3
40061cd4 g     F .text	0000004c _ZNK6tflite21SimpleMemoryAllocator18GetAvailableMemoryEj
40066978 g     F .text	000000ac _cosf
40064c5c g     F .text	00000020 strcmp
4005d538 g     F .text	00000134 _ZN6tflite14MicroAllocator17AllocateVariablesEPKNS_8SubGraphEP16TfLiteEvalTensor
4003ddb0 g     F .text	0000002c _ZN6tflite3ops5micro13Register_PACKEv
40003674 g     F .text	00000008 _ZN6tflite9ParseTanhEPKNS_8OperatorEPNS_13ErrorReporterEPNS_20BuiltinDataAllocatorEPPv
4002e300  w    F .text	000003f0 _ZNK11flexbuffers9Reference7AsInt64Ev
4005f128 g     F .text	0000002c _ZN6tflite12MicroContext13GetEvalTensorEi
4005d3f0 g     F .text	00000004 _ZN6tflite14MicroAllocatorD2Ev
400012e0 g     F .text	00000150 _ZN6tflite17ConvertTensorTypeENS_10TensorTypeEP10TfLiteTypePNS_13ErrorReporterE
400399a0  w    F .text	00000460 _ZN6tflite13reference_ops27MaximumMinimumBroadcastSlowIaPFaaaELi5EEEvRKNS_12RuntimeShapeEPKT_S6_S9_S6_PS7_T0_
40004c10  w    F .text	00000050 _ZNK6tflite22MicroMutableOpResolverILj128EE6FindOpENS_15BuiltinOperatorE
400024c8 g     F .text	00000008 _ZN6tflite13ParseNotEqualEPKNS_8OperatorEPNS_13ErrorReporterEPNS_20BuiltinDataAllocatorEPPv
40041070 g     F .text	00000110 _ZN6tflite22CalculateOpDataPoolingEPK13TfLiteContextPK16TfLitePoolParamsPK12TfLiteTensorS8_PNS_13OpDataPoolingE
40023850 g     F .text	000000c4 _ZN6tflite7testing27TestConvQuantizedPerChannelEPiPKfPafiS1_S3_S4_S1_S3_PlPfS1_S1_S3_S4_fiP16TfLiteConvParams18TfLiteRegistrationS4_
400733d0 g     O .rodata	000000d8 _ZN6tflite18kConvFilter8x3x3x3E
403de855 g     O .bss	00000001 _ZN10micro_test16is_test_completeE
4005f650 g     F .text	000000cc _ZN6tflite10MicroGraph13FreeSubgraphsEv
4003528c g     F .text	00000060 _ZN6tflite5micro14GetTensorShapeEPK16TfLiteEvalTensor
40076814 g     O .rodata	00000004 _ZN6tflite24kDepthwiseConvBiasTensorE
4000c3b0 g     F .text	00000100 _ZN6tflite10AddPrepareEP13TfLiteContextP10TfLiteNode
40062df8 g     F .text	00000004 __nedf2
400639f0 g     F .text	000000a0 __fixunsdfdi
40032d5c g     F .text	0000004c _ZN6tflite13Register_FILLEv
400032b0 g     F .text	00000008 _ZN6tflite9ParseSqrtEPKNS_8OperatorEPNS_13ErrorReporterEPNS_20BuiltinDataAllocatorEPPv
400367f0 g     F .text	0000000c _ZN6tflite13LeakyReluInitEP13TfLiteContextPKcj
4005c7f4 g     F .text	00000104 _ZN6tflite22BytesRequiredForTensorERKNS_6TensorEPjS3_PNS_13ErrorReporterE
4006942c g     F .text	00000018 copysignf
4001c248  w    F .text	00000370 _ZN6tflite3ops5micro13concatenation15EvalUnquantizedIlEEvP13TfLiteContextP10TfLiteNode
400681bc g     F .text	0000007c fgetc
40004d68  w    F .text	00000070 _ZNK6tflite15MicroOpResolver6FindOpENS_15BuiltinOperatorEi
4000e63c g     F .text	000002e0 _ZN6tflite3ops5micro4ceil7PrepareEP13TfLiteContextP10TfLiteNode
40037f48 g     F .text	0000002c _ZN6tflite19Register_LOGICAL_OREv
4002bcfc g     F .text	0000004c _ZN6tflite19Register_DEQUANTIZEEv
40063970 g     F .text	00000080 __fixdfdi
40061aa0 g     F .text	00000004 _ZN6tflite21SimpleMemoryAllocatorD2Ev
4002e6f0  w    F .text	000003d8 _ZNK11flexbuffers9Reference8AsUInt64Ev
4000004c g     F .text	000000b0 read_val
40000dac g     F .text	000000d4 perf_print_value
4001e810 g     F .text	000043c4 _Z9conv_testiPPc
40062bec g     F .text	00000060 __gesf2
40031d90 g     F .text	00000008 _ZN6tflite15Register_ETHOSUEv
40060c34 g     F .text	00000094 _ZN6tflite22MicroResourceVariables4ReadEiPK16TfLiteEvalTensor
4004c444 g     F .text	0000004c _ZN6tflite26Register_SPACE_TO_BATCH_NDEv
400022f4 g     F .text	00000008 _ZN6tflite13ParseLogisticEPKNS_8OperatorEPNS_13ErrorReporterEPNS_20BuiltinDataAllocatorEPPv
4005f2e0 g     F .text	00000004 _ZN6tflite10MicroGraphD2Ev
400317f8 g     F .text	0000004c _ZN6tflite3ops5micro15Register_SQUAREEv
40002110 g     F .text	00000008 _ZN6tflite17ParseGreaterEqualEPKNS_8OperatorEPNS_13ErrorReporterEPNS_20BuiltinDataAllocatorEPPv
40023914  w    F .text	000005e0 _ZN6tflite7testing27TestConvQuantizedPerChannelIsxEE12TfLiteStatusPiPKfPT_fiS3_S5_PaS3_S5_PT0_PfS3_S3_S5_S7_fiP16TfLiteConvParams18TfLiteRegistrationS7_
40003684 g     F .text	00000134 _ZN6tflite18ParseTransposeConvEPKNS_8OperatorEPNS_13ErrorReporterEPNS_20BuiltinDataAllocatorEPPv
40061940 g     F .text	0000001c _ZN6tflite14MockMicroGraph14InvokeSubgraphEi
4001cc90  w    F .text	00000370 _ZN6tflite3ops5micro13concatenation15EvalUnquantizedIsEEvP13TfLiteContextP10TfLiteNode
40009608 g     F .text	000007e0 _ZN6tflite7EvalAddEP13TfLiteContextP10TfLiteNodeP15TfLiteAddParamsPKNS_9OpDataAddEPK16TfLiteEvalTensorSB_PS9_
4002c5f4  w    F .text	0000000c _ZN11flexbuffers10KeyCompareIhEEiPKvS2_
40008a74 g     F .text	00000088 _ZN6tflite16FakeMicroContextC2EP12TfLiteTensorPNS_21SimpleMemoryAllocatorEPNS_10MicroGraphE
4007519c  w    O .rodata	0000003c _ZTVN6tflite14MicroAllocatorE
4000e5f0 g     F .text	0000004c _ZN6tflite18Register_CALL_ONCEEv
40000e90 g     F .text	0000000c perf_test_menu
40066d68 g     F .text	000000b0 _sinf
40002da4 g     F .text	000000cc _ZN6tflite12ParseSoftmaxEPKNS_8OperatorEPNS_13ErrorReporterEPNS_20BuiltinDataAllocatorEPPv
400032b8 g     F .text	00000008 _ZN6tflite11ParseSquareEPKNS_8OperatorEPNS_13ErrorReporterEPNS_20BuiltinDataAllocatorEPPv
40035268 g     F .text	00000024 _ZN6tflite5micro14HaveSameShapesEPK16TfLiteEvalTensorS3_
4005ca08 g     F .text	00000004 _ZN6tflite19GreedyMemoryPlannerD1Ev
40031844 g     F .text	0000004c _ZN6tflite3ops5micro20Register_LOGICAL_NOTEv
40033704 g     F .text	0000004c _ZN6tflite18Register_FLOOR_DIVEv
40060b0c g     F .text	00000128 _ZN6tflite22MicroResourceVariables19CreateIdIfNoneFoundEPKcS2_
00816be7  w      .debug_info	00000000 .hidden stdio.c.ff9f0aac
4000437c g     F .text	00000304 _ZN6tflite33CalculateActivationRangeQuantizedEP13TfLiteContext21TfLiteFusedActivationP12TfLiteTensorPlS5_
40068238 g     F .text	00000044 fputc
4005613c g     F .text	00000874 _ZN6tflite22EvalInt16SvdfReferenceEP13TfLiteContextP10TfLiteNodePK16TfLiteEvalTensorS6_S6_S6_PK16TfLiteSVDFParamsPS4_SA_RKNS_10OpDataSvdfE
40036bb4  w    F .text	00000388 _ZN6tflite17QuantizeLeakyReluIsEEvRKNS_15LeakyReluOpDataEPK16TfLiteEvalTensorPS4_
4005f1ec  w    F .text	00000004 _ZN6tflite18MicroErrorReporterD1Ev
4001ba58 g     F .text	0000004c _ZN6tflite3ops5micro13Register_LESSEv
40066d68 g     F .text	000000b0 sinf
40001f1c g     F .text	00000008 _ZN6tflite15ParseExpandDimsEPKNS_8OperatorEPNS_13ErrorReporterEPNS_20BuiltinDataAllocatorEPPv
40008a74 g     F .text	00000088 _ZN6tflite16FakeMicroContextC1EP12TfLiteTensorPNS_21SimpleMemoryAllocatorEPNS_10MicroGraphE
40035144 g     F .text	0000005c _ZN6tflite5micro12KernelRunner14InitAndPrepareEPKcj
400027b0 g     F .text	00000008 _ZN6tflite17ParseReadVariableEPKNS_8OperatorEPNS_13ErrorReporterEPNS_20BuiltinDataAllocatorEPPv
4005f168 g     F .text	00000024 _ZN6tflite12MicroContextC1EPNS_14MicroAllocatorEPKNS_5ModelEPNS_10MicroGraphE
40027e2c g     F .text	00003c88 _Z19depthwise_conv_testiPPc
40054190 g     F .text	00000fe0 _ZN6tflite16EvalSubQuantizedEP13TfLiteContextP10TfLiteNodeP15TfLiteSubParamsPKNS_9OpDataSubEPK16TfLiteEvalTensorSB_PS9_
40049790 g     F .text	0000004c _ZN6tflite3ops5micro32Register_RESIZE_NEAREST_NEIGHBOREv
40034fc4  w    F .text	00000010 _ZN6tflite36MicroContextAllocatePersistentBufferEP13TfLiteContextj
40061d58 g     F .text	0000023c _ZN6tflite7testing35CreatePerChannelQuantizedBiasTensorEPKfPlP14TfLiteIntArrayfPfS6_PiP24TfLiteAffineQuantizationib
400367a4 g     F .text	0000004c _ZN6tflite3ops5micro25Register_L2_NORMALIZATIONEv
4005e2fc g     F .text	00000444 _ZN6tflite8internal36InitializeTfLiteTensorFromFlatbufferEPNS_21SimpleMemoryAllocatorEbRKNS_6TensorEPKN11flatbuffers6VectorINS6_6OffsetINS_6BufferEEEEEPNS_13ErrorReporterEP12TfLiteTensor
400488b0 g     F .text	00000200 _ZN6tflite3ops5micro23resize_nearest_neighbor7PrepareEP13TfLiteContextP10TfLiteNode
40031630 g     F .text	0000004c _ZN6tflite3ops5micro12Register_ABSEv
40004c60  w    F .text	00000004 _ZN6tflite14AllOpsResolverD2Ev
4005f00c g     F .text	000000c4 _ZN6tflite14MicroAllocator28FinishPrepareNodeAllocationsEi
40066894 g     F .text	000000e4 ceilf
40075208  w    O .rodata	00000024 _ZTVN6tflite12MicroContextE
40041180 g     F .text	00000190 _ZN6tflite14PoolingPrepareEP13TfLiteContextP10TfLiteNode
40039790  w    F .text	00000210 _ZN6tflite15NDOpsHelperImplILi5ELi1EZNS_13reference_ops27MaximumMinimumBroadcastSlowIaPFaaaELi5EEEvRKNS_12RuntimeShapeEPKT_S7_SA_S7_PS8_T0_EUlPiE_EENSt9enable_ifIXneT0_miT_Li1EEvE4typeERKNS_11NdArrayDescIXT_EEERKT1_SD_
40064ac4 g     F .text	00000078 __ctzsi2
403de84c g     O .bss	00000004 _ZN10micro_test12tests_failedE
40023ef4 g     F .text	000000c4 _ZN6tflite7testing27TestConvQuantizedPerChannelEPiPKfPsfiS1_S3_PaS1_S3_PxPfS1_S1_S3_S4_fiP16TfLiteConvParams18TfLiteRegistrationS4_
40034d8c g     F .text	00000238 _ZN6tflite16HardSwishPrepareEP13TfLiteContextP10TfLiteNode
403de840 g       .data	00000000 _edata
40061aa0 g     F .text	00000004 _ZN6tflite21SimpleMemoryAllocatorD0Ev
4005ef30 g     F .text	000000dc _ZN6tflite14MicroAllocator27RequestScratchBufferInArenaEjiPi
40003540 g     F .text	00000134 _ZN6tflite9ParseSvdfEPKNS_8OperatorEPNS_13ErrorReporterEPNS_20BuiltinDataAllocatorEPPv
40076884 g     O .rodata	00000004 _ZN6tflite22kHardSwishOutputTensorE
40004078 g     F .text	00000050 _ZN6tflite9GetOutputEP13TfLiteContextPK10TfLiteNodei
4003471c g     F .text	0000004c _ZN6tflite24Register_FULLY_CONNECTEDEv
4003b680 g     F .text	000003b4 _ZN6tflite10MulPrepareEP13TfLiteContextP10TfLiteNode
404ad880 g       .bss	00000000 _end
40062c4c g     F .text	00000030 __unordsf2
4005f558 g     F .text	000000f8 _ZN6tflite10MicroGraph13InitSubgraphsEv
4005ca14 g     F .text	00000074 _ZN6tflite19GreedyMemoryPlanner9AddBufferEPNS_13ErrorReporterEiii
400420ec g     F .text	0000000c _ZN6tflite9PreluInitEP13TfLiteContextPKcj
400768d0 g     O .rodata	00000004 _ZN6tflite20kLogisticInputTensorE
400317ac g     F .text	0000004c _ZN6tflite3ops5micro14Register_RSQRTEv
4005d3f4 g     F .text	00000014 _ZN6tflite14MicroAllocator24AllocatePersistentBufferEj
400040c8 g     F .text	000000cc _ZN6tflite13GetOutputSafeEPK13TfLiteContextPK10TfLiteNodeiPP12TfLiteTensor
40001780 g     F .text	00000008 _ZN6tflite19ParseAssignVariableEPKNS_8OperatorEPNS_13ErrorReporterEPNS_20BuiltinDataAllocatorEPPv
40003f5c g     F .text	00000050 _ZN6tflite8GetInputEPK13TfLiteContextPK10TfLiteNodei
4001e1dc g     F .text	000000bc _ZN6tflite19ConvParamsQuantizedERK16TfLiteConvParamsRKNS_10OpDataConvE
4001be8c g     F .text	0000004c _ZN6tflite3ops5micro22Register_CONCATENATIONEv
40035c50 g     F .text	0000004c _ZN6tflite19Register_L2_POOL_2DEv
40032770 g     F .text	0000004c _ZN6tflite20Register_EXPAND_DIMSEv
400445cc g     F .text	000008a0 _ZN6tflite3ops5micro6reduce7EvalMaxEP13TfLiteContextP10TfLiteNode
40037fa0 g     F .text	000004f0 _ZN6tflite11LogicalImplEP13TfLiteContextP10TfLiteNodePFbbbE
40047418 g     F .text	000000e4 _ZN6tflite3ops5micro7reshape4EvalEP13TfLiteContextP10TfLiteNode
40035ca8 g     F .text	00000240 _ZN6tflite3ops5micro6l2norm7PrepareEP13TfLiteContextP10TfLiteNode
4003a488  w    F .text	00000230 _ZN6tflite15NDOpsHelperImplILi5ELi1EZNS_13reference_ops27MaximumMinimumBroadcastSlowIxPFxxxELi5EEEvRKNS_12RuntimeShapeEPKT_S7_SA_S7_PS8_T0_EUlPiE_EENSt9enable_ifIXneT0_miT_Li1EEvE4typeERKNS_11NdArrayDescIXT_EEERKT1_SD_
4000e91c g     F .text	000000f0 _ZN6tflite3ops5micro4ceil4EvalEP13TfLiteContextP10TfLiteNode
4007696c g     O .rodata	00000004 _ZN6tflite31kSvdfInputActivationStateTensorE
400027a8 g     F .text	00000008 _ZN6tflite13ParseQuantizeEPKNS_8OperatorEPNS_13ErrorReporterEPNS_20BuiltinDataAllocatorEPPv
40044e6c g     F .text	000020bc _ZN6tflite3ops5micro6reduce8EvalMeanEP13TfLiteContextP10TfLiteNode
40063858 g     F .text	0000009c __floatunsisf
4006195c g     F .text	00000008 _ZN6tflite14MockMicroGraph20ResetVariableTensorsEv
4005c75c g     F .text	0000000c _ZN6tflite16AlignPointerDownEPhj
40031d44 g     F .text	0000004c _ZN6tflite12Register_ELUEv
400022c4 g     F .text	00000008 _ZN6tflite9ParseLessEPKNS_8OperatorEPNS_13ErrorReporterEPNS_20BuiltinDataAllocatorEPPv
400089c0  w    F .text	00000010 _ZN6tflite16FakeMicroContextD1Ev
40067b40 g     F .text	00000010 .hidden __math_uflow
4005fcfc  w    F .text	0000000c _ZN6tflite30MicroContextGetExternalContextEP13TfLiteContext25TfLiteExternalContextType
4006196c g     F .text	00000008 _ZN6tflite14MockMicroGraph16GetSubgraphInputEii
40034768 g     F .text	00000044 _ZN6tflite29FullyConnectedParamsQuantizedERKNS_20OpDataFullyConnectedE
400478c8 g     F .text	0000004c _ZN6tflite3ops5micro16Register_RESHAPEEv
400088fc g     F .text	00000004 DebugLog
40022e44 g     F .text	00000060 _ZN6tflite7testing10InvokeConvEP12TfLiteTensoriiP16TfLiteConvParams18TfLiteRegistrationPa
4001c920  w    F .text	00000370 _ZN6tflite3ops5micro13concatenation15EvalUnquantizedIxEEvP13TfLiteContextP10TfLiteNode
40022de4 g     F .text	00000060 _ZN6tflite7testing10InvokeConvEP12TfLiteTensoriiP16TfLiteConvParams18TfLiteRegistrationPf
4005f930 g     F .text	00000134 _ZN6tflite10MicroGraph16PrepareSubgraphsEv
40076278 g     O .rodata	00000101 _ctype_
400590ec g     F .text	0000004c _ZN6tflite18Register_TRANSPOSEEv
4001b974 g     F .text	0000004c _ZN6tflite3ops5micro18Register_NOT_EQUALEv
400734c8 g     O .rodata	00000c00 _ZN6tflite19kConvInput1x32x32x3E
400768e0 g     O .rodata	00000004 _ZN6tflite16kMulOutputTensorE
40062dac g     F .text	00000044 __unorddf2
4000bf70 g     F .text	00000130 _ZN6tflite7AddEvalEP13TfLiteContextP10TfLiteNode
40076944 g     O .rodata	00000004 _ZN6tflite16kSubInputTensor1E
4005f320 g     F .text	0000007c _ZN6tflite10MicroGraph17NumSubgraphInputsEi
40062b84 g     F .text	00000004 _exit
40061d24 g     F .text	00000004 _ZN6tflite7testing16IntArrayFromIntsEPi
40068880 g     F .text	0000088c __kernel_rem_pio2f
4006196c g     F .text	00000008 _ZN6tflite14MockMicroGraph17GetSubgraphOutputEii
4003b674 g     F .text	0000000c _ZN6tflite7MulInitEP13TfLiteContextPKcj
40066030 g     F .text	0000032c expf
4002302c g     F .text	000002c8 _ZN6tflite7testing13TestConvFloatEPiPKfS1_S3_S1_S3_S1_S3_P16TfLiteConvParams18TfLiteRegistrationPf
4007686c g     O .rodata	00000004 _ZN6tflite26kFullyConnectedInputTensorE
40055bd8 g     F .text	000001fc _ZN6tflite18CalculateOpDataSubEP13TfLiteContextP15TfLiteSubParamsPK12TfLiteTensorS6_PS4_PNS_9OpDataSubE
4005f0ec g     F .text	00000014 _ZN6tflite12MicroContext16GetScratchBufferEi
40030a58 g     F .text	0000000c _ZN6tflite30Register_DETECTION_POSTPROCESSEv
4003b4c4 g     F .text	0000004c _ZN6tflite19Register_MIRROR_PADEv
400094cc g     F .text	00000130 _ZN6tflite12Relu6PrepareEP13TfLiteContextP10TfLiteNode
40076820 g     O .rodata	00000004 _ZN6tflite27kDepthwiseConvWeightsTensorE
40068048 g     F .text	0000000c .hidden __math_oflowf
40064c7c g     F .text	0000001c strlen
4000230c g     F .text	000000d8 _ZN6tflite14ParseMirrorPadEPKNS_8OperatorEPNS_13ErrorReporterEPNS_20BuiltinDataAllocatorEPPv
40035014 g     F .text	00000130 _ZN6tflite5micro12KernelRunnerC1ERK18TfLiteRegistrationP12TfLiteTensoriP14TfLiteIntArrayS8_Pv
400474fc g     F .text	00000294 _ZN6tflite3ops5micro7reshape13ReshapeOutputEP13TfLiteContextP10TfLiteNode
4001e0e4 g     F .text	000000f8 _ZN6tflite15ConvParamsFloatERK16TfLiteConvParamsRKNS_10OpDataConvE
403de99c g     O .bss	00002710 _ZN6tflite5micro12KernelRunner20kKernelRunnerBuffer_E
40062d20 g     F .text	0000008c __gedf2
4001baf0 g     F .text	0000000c _ZN6tflite3ops5micro13concatenation4InitEP13TfLiteContextPKcj
400022fc g     F .text	00000008 _ZN6tflite12ParseMaximumEPKNS_8OperatorEPNS_13ErrorReporterEPNS_20BuiltinDataAllocatorEPPv
400025c8 g     F .text	00000008 _ZN6tflite8ParsePadEPKNS_8OperatorEPNS_13ErrorReporterEPNS_20BuiltinDataAllocatorEPPv
40004fa0  w    F .text	000000cc _ZNK6tflite15MicroOpResolver6FindOpEPKci
40001668 g     F .text	00000118 _ZN6tflite11ParseArgMinEPKNS_8OperatorEPNS_13ErrorReporterEPNS_20BuiltinDataAllocatorEPPv
40004bc4 g     F .text	00000024 _ZN6tflite14HaveSameShapesEPK12TfLiteTensorS2_
40069fec g     O .rodata	00000c00 g_svhn_img_data
4005d3f0 g     F .text	00000004 _ZN6tflite14MicroAllocatorD1Ev
4001ba0c g     F .text	0000004c _ZN6tflite3ops5micro22Register_GREATER_EQUALEv
4004d250  w    F .text	00000270 _ZN6tflite3ops5micro5split9SplitImplIsEE12TfLiteStatusP13TfLiteContextP10TfLiteNodePK16TfLiteEvalTensori
40064d60 g     F .text	00000010 abs
40066a24 g     F .text	000000e4 floorf
400680f0 g     F .text	000000a8 _on_exit
4001bed8  w    F .text	00000370 _ZN6tflite3ops5micro13concatenation15EvalUnquantizedIfEEvP13TfLiteContextP10TfLiteNode
400352ec g     F .text	00000020 _ZN6tflite5micro18RuntimePaddingTypeE13TfLitePadding
400090e8 g     F .text	000000d8 _ZN6tflite9ReluFloatERKNS_12RuntimeShapeEPKfS2_Pf
4005fa64 g     F .text	00000234 _ZN6tflite10MicroGraph20ResetVariableTensorsEv
4003a6b8  w    F .text	00000470 _ZN6tflite13reference_ops27MaximumMinimumBroadcastSlowIxPFxxxELi5EEEvRKNS_12RuntimeShapeEPKT_S6_S9_S6_PS7_T0_
4005f1ec  w    F .text	00000004 _ZN6tflite18MicroErrorReporterD0Ev
40004cb4  w    F .text	000000b4 _ZNK6tflite22MicroMutableOpResolverILj128EE6FindOpEPKc
400470fc g     F .text	00000120 _ZN6tflite3ops5micro6reduce10PrepareMaxEP13TfLiteContextP10TfLiteNode
4005ca0c g     F .text	00000008 _ZN6tflite19GreedyMemoryPlanner14GetBufferCountEv
4004721c g     F .text	00000164 _ZN6tflite3ops5micro6reduce16PrepareMeanOrSumEP13TfLiteContextP10TfLiteNode
40069870 g       .rodata	00000000 _frodata
40063f5c g     F .text	00000018 __subdf3
4005e9ac g     F .text	000001cc _ZN6tflite14MicroAllocator30AllocatePersistentTfLiteTensorEPKNS_5ModelEPKNS_19SubgraphAllocationsEii
40059648  w    F .text	00000204 _ZN6tflite15NDOpsHelperImplILi5ELi1EZNS_13reference_ops13TransposeImplIlLi5EEEvRKNS_15TransposeParamsERKNS_12RuntimeShapeEPKT_S8_PS9_EUlPiE_EENSt9enable_ifIXneT0_miT_Li1EEvE4typeERKNS_11NdArrayDescIXT_EEERKT1_SD_
40061964 g     F .text	00000008 _ZN6tflite14MockMicroGraph17NumSubgraphInputsEi
40043358 g     F .text	0000004c _ZN6tflite17Register_QUANTIZEEv
40022ea4 g     F .text	00000188 _ZN6tflite7testing19ValidateConvGoldensEP12TfLiteTensoriPKaiP16TfLiteConvParams18TfLiteRegistrationPaf
400768e8 g     O .rodata	00000004 _ZN6tflite20kPoolingOutputTensorE
400372c8  w    F .text	000006d8 _ZN8gemmlowp32one_over_one_plus_x_for_x_in_0_1IlEENS_10FixedPointIT_Li0EEES3_
40000bd4 g     F .text	00000030 neural_net_svhn_menu
4004db64  w    F .text	000002bc _ZN6tflite3ops5micro7split_v9SplitImplIaEE12TfLiteStatusP13TfLiteContextP10TfLiteNodePK16TfLiteEvalTensori
400038b0 g     F .text	000000f4 _ZN6tflite14ParseVarHandleEPKNS_8OperatorEPNS_13ErrorReporterEPNS_20BuiltinDataAllocatorEPPv
400768d4 g     O .rodata	00000004 _ZN6tflite21kLogisticOutputTensorE
40067b60 g     F .text	00000454 expm1f
40008bb4 g     F .text	00000004 _ZN6tflite33FlatBufferVectorToTfLiteTypeArrayEPKN11flatbuffers6VectorIfEE
4004cdbc  w    F .text	00000200 _ZN6tflite3ops5micro5split9SplitImplIfEE12TfLiteStatusP13TfLiteContextP10TfLiteNodePK16TfLiteEvalTensori
403de840 g       .bss	00000000 _fbss
4005eb78 g     F .text	000000b0 _ZN6tflite14MicroAllocator6CreateEPhjPNS_13ErrorReporterE
40001548 g     F .text	00000008 _ZN6tflite9ParseAddNEPKNS_8OperatorEPNS_13ErrorReporterEPNS_20BuiltinDataAllocatorEPPv
4005c77c g     F .text	00000078 _ZN6tflite16TfLiteTypeSizeOfE10TfLiteTypePj
4006c1cc  w    O .rodata	00000030 _ZTVN6tflite14AllOpsResolverE
40066cb8 g     F .text	000000b0 frexp
40062e00 g     F .text	00000254 __addsf3
40001790 g     F .text	000000c8 _ZN6tflite13ParseCallOnceEPKNS_8OperatorEPNS_13ErrorReporterEPNS_20BuiltinDataAllocatorEPPv
4001c5b8  w    F .text	00000368 _ZN6tflite3ops5micro13concatenation15EvalUnquantizedIaEEvP13TfLiteContextP10TfLiteNode
4001bafc g     F .text	00000390 _ZN6tflite3ops5micro13concatenation7PrepareEP13TfLiteContextP10TfLiteNode
400656b0 g     F .text	000006f0 vfprintf
40047380 g     F .text	0000004c _ZN6tflite3ops5micro13Register_MEANEv
40068054 g     F .text	0000009c raise
40003c08 g     F .text	000000ec _ZN6tflite35QuantizeMultiplierSmallerThanOneExpEdPlPi
40076b58 g       .rodata	00000000 _erodata
40008988 g     F .text	00000014 _ZN6tflite16FakeMicroContext24AllocatePersistentBufferEj
40008900 g     F .text	00000018 _ZN6tflite16FakeMicroContext9GetTensorEi
4002bd48 g     F .text	000001bc _ZN6tflite17DequantizePrepareEP13TfLiteContextP10TfLiteNode


